	.file	"main.cpp"
	.text
.Ltext0:
	.cfi_sections	.debug_frame
	.section	.text$_ZNKSt5ctypeIcE8do_widenEc,"x"
	.linkonce discard
	.align 2
	.p2align 4,,15
	.globl	_ZNKSt5ctypeIcE8do_widenEc
	.def	_ZNKSt5ctypeIcE8do_widenEc;	.scl	2;	.type	32;	.endef
	.seh_proc	_ZNKSt5ctypeIcE8do_widenEc
_ZNKSt5ctypeIcE8do_widenEc:
.LVL0:
.LFB1658:
	.file 1 "C:/Program Files/CodeBlocks/MinGW/lib/gcc/x86_64-w64-mingw32/8.1.0/include/c++/bits/locale_facets.h"
	.loc 1 1082 7 view -0
	.cfi_startproc
	.loc 1 1082 7 is_stmt 0 view .LVU1
	.seh_endprologue
	.loc 1 1083 9 is_stmt 1 view .LVU2
	.loc 1 1083 21 is_stmt 0 view .LVU3
	movl	%edx, %eax
	ret
	.cfi_endproc
.LFE1658:
	.seh_endproc
	.text
	.p2align 4,,15
	.def	__tcf_0;	.scl	3;	.type	32;	.endef
	.seh_proc	__tcf_0
__tcf_0:
.LFB3401:
	.file 2 "C:/Program Files/CodeBlocks/MinGW/lib/gcc/x86_64-w64-mingw32/8.1.0/include/c++/iostream"
	.loc 2 74 25 is_stmt 1 view -0
	.cfi_startproc
	.seh_endprologue
	.loc 2 74 25 is_stmt 0 view .LVU5
	leaq	_ZStL8__ioinit(%rip), %rcx
	jmp	_ZNSt8ios_base4InitD1Ev
.LVL1:
	.cfi_endproc
.LFE3401:
	.seh_endproc
	.p2align 4,,15
	.globl	_Z8IsSquarex
	.def	_Z8IsSquarex;	.scl	2;	.type	32;	.endef
	.seh_proc	_Z8IsSquarex
_Z8IsSquarex:
.LVL2:
.LFB2681:
	.file 3 "C:/Users/Saha2/Desktop/Code-Samples/C++/temporary_stuff/submarine/main.cpp"
	.loc 3 8 32 is_stmt 1 view -0
	.cfi_startproc
	.loc 3 8 32 is_stmt 0 view .LVU7
	subq	$88, %rsp
	.seh_stackalloc	88
	.cfi_def_cfa_offset 96
	movaps	%xmm6, 32(%rsp)
	.seh_savexmm	%xmm6, 32
	movaps	%xmm7, 48(%rsp)
	.seh_savexmm	%xmm7, 48
	movaps	%xmm8, 64(%rsp)
	.seh_savexmm	%xmm8, 64
	.cfi_offset 23, -64
	.cfi_offset 24, -48
	.cfi_offset 25, -32
	.seh_endprologue
	.loc 3 9 5 is_stmt 1 view .LVU8
.LVL3:
.LBB464:
.LBI464:
	.file 4 "C:/Program Files/CodeBlocks/MinGW/lib/gcc/x86_64-w64-mingw32/8.1.0/include/c++/bits/std_abs.h"
	.loc 4 61 3 view .LVU9
.LBB465:
	.loc 4 61 24 view .LVU10
	.loc 4 61 24 is_stmt 0 view .LVU11
.LBE465:
.LBE464:
.LBB467:
.LBI467:
	.file 5 "C:/Program Files/CodeBlocks/MinGW/lib/gcc/x86_64-w64-mingw32/8.1.0/include/c++/cmath"
	.loc 5 475 5 is_stmt 1 view .LVU12
.LBB468:
	.loc 5 476 28 is_stmt 0 view .LVU13
	pxor	%xmm6, %xmm6
	pxor	%xmm0, %xmm0
.LBE468:
.LBE467:
.LBB472:
.LBB466:
	.loc 4 61 51 view .LVU14
	movq	%rcx, %rax
	sarq	$63, %rax
	xorq	%rax, %rcx
.LVL4:
	.loc 4 61 51 view .LVU15
	subq	%rax, %rcx
.LBE466:
.LBE472:
.LBB473:
.LBB469:
	.loc 5 476 28 view .LVU16
	cvtsi2sdq	%rcx, %xmm6
	ucomisd	%xmm6, %xmm0
	sqrtsd	%xmm6, %xmm8
	ja	.L8
.LVL5:
	.loc 5 476 28 view .LVU17
.LBE469:
.LBE473:
	.loc 3 9 12 view .LVU18
	cvttsd2si	%xmm8, %eax
	.loc 3 9 38 view .LVU19
	pxor	%xmm7, %xmm7
	cvtsi2sd	%eax, %xmm7
.LVL6:
	.loc 4 61 24 is_stmt 1 view .LVU20
.LBB474:
.LBI474:
	.loc 5 475 5 view .LVU21
.L6:
	.loc 5 475 5 is_stmt 0 view .LVU22
.LBE474:
	.loc 3 9 58 view .LVU23
	ucomisd	%xmm7, %xmm8
	movl	$0, %edx
	.loc 3 10 1 view .LVU24
	movaps	32(%rsp), %xmm6
	movaps	48(%rsp), %xmm7
	movaps	64(%rsp), %xmm8
	.loc 3 9 58 view .LVU25
	setnp	%al
	cmovne	%edx, %eax
	.loc 3 10 1 view .LVU26
	addq	$88, %rsp
	.cfi_remember_state
	.cfi_restore 25
	.cfi_restore 24
	.cfi_restore 23
	.cfi_def_cfa_offset 8
	ret
.LVL7:
.L8:
	.cfi_restore_state
.LBB477:
.LBB470:
	.loc 5 476 28 view .LVU27
	movapd	%xmm6, %xmm0
.LBE470:
.LBE477:
	.loc 3 9 38 view .LVU28
	pxor	%xmm7, %xmm7
.LBB478:
.LBB471:
	.loc 5 476 28 view .LVU29
	call	sqrt
.LVL8:
	.loc 5 476 28 view .LVU30
.LBE471:
.LBE478:
.LBB479:
.LBB475:
	movapd	%xmm6, %xmm0
.LBE475:
.LBE479:
	.loc 3 9 12 view .LVU31
	cvttsd2si	%xmm8, %eax
	.loc 3 9 38 view .LVU32
	cvtsi2sd	%eax, %xmm7
.LVL9:
	.loc 4 61 24 is_stmt 1 view .LVU33
.LBB480:
	.loc 5 475 5 view .LVU34
.LBB476:
	.loc 5 476 28 is_stmt 0 view .LVU35
	call	sqrt
.LVL10:
	jmp	.L6
.LBE476:
.LBE480:
	.cfi_endproc
.LFE2681:
	.seh_endproc
	.p2align 4,,15
	.globl	_Z10requr_calciiRKSt6vectorIxSaIxEE
	.def	_Z10requr_calciiRKSt6vectorIxSaIxEE;	.scl	2;	.type	32;	.endef
	.seh_proc	_Z10requr_calciiRKSt6vectorIxSaIxEE
_Z10requr_calciiRKSt6vectorIxSaIxEE:
.LVL11:
.LFB2684:
	.loc 3 24 66 is_stmt 1 view -0
	.cfi_startproc
	.loc 3 24 66 is_stmt 0 view .LVU37
	pushq	%r12
	.seh_pushreg	%r12
	.cfi_def_cfa_offset 16
	.cfi_offset 12, -16
	pushq	%rbp
	.seh_pushreg	%rbp
	.cfi_def_cfa_offset 24
	.cfi_offset 6, -24
	pushq	%rdi
	.seh_pushreg	%rdi
	.cfi_def_cfa_offset 32
	.cfi_offset 5, -32
	pushq	%rsi
	.seh_pushreg	%rsi
	.cfi_def_cfa_offset 40
	.cfi_offset 4, -40
	pushq	%rbx
	.seh_pushreg	%rbx
	.cfi_def_cfa_offset 48
	.cfi_offset 3, -48
	subq	$32, %rsp
	.seh_stackalloc	32
	.cfi_def_cfa_offset 80
	.seh_endprologue
	.loc 3 25 5 is_stmt 1 view .LVU38
.LVL12:
	.loc 3 26 5 view .LVU39
	.loc 3 25 9 is_stmt 0 view .LVU40
	movl	$1, %ebp
.LBB484:
	.loc 3 26 36 view .LVU41
	movq	(%r8), %rdi
	movslq	%edx, %rsi
.LBE484:
	.loc 3 24 66 view .LVU42
	movq	%r8, %r12
.LVL13:
.LBB487:
.LBB485:
.LBI485:
	.file 6 "C:/Program Files/CodeBlocks/MinGW/lib/gcc/x86_64-w64-mingw32/8.1.0/include/c++/bits/stl_vector.h"
	.loc 6 948 7 is_stmt 1 view .LVU43
	.loc 6 948 7 is_stmt 0 view .LVU44
.LBE485:
	.loc 3 26 28 view .LVU45
	movslq	%ecx, %rbx
	movq	(%rdi,%rsi,8), %r8
.LVL14:
	.loc 3 26 28 view .LVU46
	movq	%rbx, %rax
	cqto
.LVL15:
	.loc 3 26 28 view .LVU47
	idivq	%r8
	.loc 3 26 38 view .LVU48
	cmpq	%rax, %r8
	.loc 3 26 28 view .LVU49
	movq	%rax, %rcx
.LVL16:
	.loc 3 26 38 view .LVU50
	jg	.L9
.LVL17:
.L12:
	.loc 3 27 9 is_stmt 1 view .LVU51
	.loc 3 27 17 is_stmt 0 view .LVU52
	movq	%rbx, %rax
	cqto
	idivq	%r8
	.loc 3 27 9 view .LVU53
	testq	%rdx, %rdx
	je	.L15
.L11:
.LVL18:
.LBB486:
	.loc 6 948 7 is_stmt 1 discriminator 2 view .LVU54
	.loc 6 948 7 is_stmt 0 discriminator 2 view .LVU55
.LBE486:
	.loc 3 26 28 discriminator 2 view .LVU56
	movq	8(%rdi,%rsi,8), %r8
	movq	%rbx, %rax
	addq	$1, %rsi
.LVL19:
	.loc 3 26 28 discriminator 2 view .LVU57
	cqto
	idivq	%r8
	.loc 3 26 38 discriminator 2 view .LVU58
	cmpq	%rax, %r8
	.loc 3 26 28 discriminator 2 view .LVU59
	movq	%rax, %rcx
	.loc 3 26 38 discriminator 2 view .LVU60
	jle	.L12
.LVL20:
.L9:
	.loc 3 26 38 discriminator 2 view .LVU61
.LBE487:
	.loc 3 31 1 view .LVU62
	movl	%ebp, %eax
	addq	$32, %rsp
	.cfi_remember_state
	.cfi_def_cfa_offset 48
	popq	%rbx
	.cfi_restore 3
	.cfi_def_cfa_offset 40
.LVL21:
	.loc 3 31 1 view .LVU63
	popq	%rsi
	.cfi_restore 4
	.cfi_def_cfa_offset 32
	popq	%rdi
	.cfi_restore 5
	.cfi_def_cfa_offset 24
	popq	%rbp
	.cfi_restore 6
	.cfi_def_cfa_offset 16
	popq	%r12
	.cfi_restore 12
	.cfi_def_cfa_offset 8
.LVL22:
	.loc 3 31 1 view .LVU64
	ret
.LVL23:
	.p2align 4,,10
.L15:
	.cfi_restore_state
.LBB488:
	.loc 3 27 33 is_stmt 1 discriminator 1 view .LVU65
	.loc 3 27 50 is_stmt 0 discriminator 1 view .LVU66
	movq	%r12, %r8
	movl	%esi, %edx
	call	_Z10requr_calciiRKSt6vectorIxSaIxEE
.LVL24:
	.loc 3 27 37 discriminator 1 view .LVU67
	addl	%eax, %ebp
.LVL25:
	.loc 3 27 37 discriminator 1 view .LVU68
	jmp	.L11
.LBE488:
	.cfi_endproc
.LFE2684:
	.seh_endproc
	.section	.text$_ZNSt6vectorIxSaIxEE17_M_realloc_insertIJxEEEvN9__gnu_cxx17__normal_iteratorIPxS1_EEDpOT_,"x"
	.linkonce discard
	.align 2
	.p2align 4,,15
	.globl	_ZNSt6vectorIxSaIxEE17_M_realloc_insertIJxEEEvN9__gnu_cxx17__normal_iteratorIPxS1_EEDpOT_
	.def	_ZNSt6vectorIxSaIxEE17_M_realloc_insertIJxEEEvN9__gnu_cxx17__normal_iteratorIPxS1_EEDpOT_;	.scl	2;	.type	32;	.endef
	.seh_proc	_ZNSt6vectorIxSaIxEE17_M_realloc_insertIJxEEEvN9__gnu_cxx17__normal_iteratorIPxS1_EEDpOT_
_ZNSt6vectorIxSaIxEE17_M_realloc_insertIJxEEEvN9__gnu_cxx17__normal_iteratorIPxS1_EEDpOT_:
.LVL26:
.LFB3197:
	.file 7 "C:/Program Files/CodeBlocks/MinGW/lib/gcc/x86_64-w64-mingw32/8.1.0/include/c++/bits/vector.tcc"
	.loc 7 413 7 is_stmt 1 view -0
	.cfi_startproc
	.loc 7 413 7 is_stmt 0 view .LVU70
	pushq	%r15
	.seh_pushreg	%r15
	.cfi_def_cfa_offset 16
	.cfi_offset 15, -16
	pushq	%r14
	.seh_pushreg	%r14
	.cfi_def_cfa_offset 24
	.cfi_offset 14, -24
	pushq	%r13
	.seh_pushreg	%r13
	.cfi_def_cfa_offset 32
	.cfi_offset 13, -32
	pushq	%r12
	.seh_pushreg	%r12
	.cfi_def_cfa_offset 40
	.cfi_offset 12, -40
	pushq	%rbp
	.seh_pushreg	%rbp
	.cfi_def_cfa_offset 48
	.cfi_offset 6, -48
	pushq	%rdi
	.seh_pushreg	%rdi
	.cfi_def_cfa_offset 56
	.cfi_offset 5, -56
	pushq	%rsi
	.seh_pushreg	%rsi
	.cfi_def_cfa_offset 64
	.cfi_offset 4, -64
	pushq	%rbx
	.seh_pushreg	%rbx
	.cfi_def_cfa_offset 72
	.cfi_offset 3, -72
	subq	$56, %rsp
	.seh_stackalloc	56
	.cfi_def_cfa_offset 128
	.seh_endprologue
.LVL27:
.LBB542:
.LBI542:
	.loc 6 1635 7 is_stmt 1 view .LVU71
.LBB543:
	.loc 6 1637 17 is_stmt 0 view .LVU72
	movq	8(%rcx), %r13
	movq	(%rcx), %rsi
.LBB544:
.LBB545:
	.loc 6 806 50 view .LVU73
	movq	%r13, %rax
	movq	%rdx, %r14
.LBE545:
.LBE544:
.LBE543:
.LBE542:
	.loc 7 413 7 view .LVU74
	movq	%rcx, %rbp
.LBB558:
.LBB553:
.LBB548:
.LBI544:
	.loc 6 805 7 is_stmt 1 view .LVU75
.LVL28:
.LBB546:
	.loc 6 806 50 is_stmt 0 view .LVU76
	subq	%rsi, %rax
	subq	%rsi, %r14
.LBE546:
.LBE548:
.LBE553:
.LBE558:
	.loc 7 413 7 view .LVU77
	movq	%rdx, %rdi
.LBB559:
.LBB554:
.LBB549:
.LBB547:
	.loc 6 806 50 view .LVU78
	sarq	$3, %rax
.LVL29:
	.loc 6 806 50 view .LVU79
.LBE547:
.LBE549:
.LBB550:
.LBI550:
	.file 8 "C:/Program Files/CodeBlocks/MinGW/lib/gcc/x86_64-w64-mingw32/8.1.0/include/c++/bits/stl_algobase.h"
	.loc 8 219 5 is_stmt 1 view .LVU80
	.loc 8 219 5 is_stmt 0 view .LVU81
.LBE550:
.LBE554:
.LBE559:
	.loc 7 413 7 view .LVU82
	movq	%r8, %r15
.LBB560:
.LBB555:
.LBB552:
.LBB551:
	.loc 8 224 7 view .LVU83
	testq	%rax, %rax
	je	.L25
.LVL30:
	.loc 8 224 7 view .LVU84
.LBE551:
.LBE552:
	.loc 6 1640 18 view .LVU85
	leaq	(%rax,%rax), %rdx
.LVL31:
	.loc 6 1641 48 view .LVU86
	movq	$-8, %r12
	cmpq	%rdx, %rax
	jbe	.L30
.LVL32:
.L18:
	.loc 6 1641 48 view .LVU87
.LBE555:
.LBE560:
.LBB561:
.LBB562:
.LBB563:
.LBB564:
.LBB565:
	.file 9 "C:/Program Files/CodeBlocks/MinGW/lib/gcc/x86_64-w64-mingw32/8.1.0/include/c++/ext/new_allocator.h"
	.loc 9 111 41 view .LVU88
	movq	%r12, %rcx
.LVL33:
	.loc 9 111 41 view .LVU89
	call	_Znwy
.LVL34:
	.loc 9 111 41 view .LVU90
	movq	%rax, %rbx
	addq	%rax, %r12
.L19:
.LVL35:
	.loc 9 111 41 view .LVU91
.LBE565:
.LBE564:
.LBE563:
.LBE562:
.LBE561:
.LBB567:
.LBI567:
	.file 10 "C:/Program Files/CodeBlocks/MinGW/lib/gcc/x86_64-w64-mingw32/8.1.0/include/c++/bits/alloc_traits.h"
	.loc 10 474 2 is_stmt 1 view .LVU92
.LBB568:
.LBI568:
	.loc 9 135 2 view .LVU93
	.loc 9 135 2 is_stmt 0 view .LVU94
.LBE568:
.LBE567:
	.file 11 "C:/Program Files/CodeBlocks/MinGW/lib/gcc/x86_64-w64-mingw32/8.1.0/include/c++/new"
	.loc 11 169 3 is_stmt 1 view .LVU95
.LBB573:
.LBB571:
.LBB569:
	.loc 11 169 3 is_stmt 0 view .LVU96
	movq	(%r15), %rax
	leaq	8(%rbx,%r14), %r10
	movq	%r13, %r15
.LVL36:
	.loc 11 169 3 view .LVU97
	subq	%rdi, %r15
.LBE569:
.LBE571:
.LBE573:
.LBB574:
.LBB575:
.LBB576:
.LBB577:
.LBB578:
.LBB579:
.LBB580:
.LBB581:
.LBB582:
.LBB583:
.LBB584:
	.loc 8 367 4 view .LVU98
	cmpq	%rsi, %rdi
.LBE584:
.LBE583:
.LBE582:
.LBE581:
.LBE580:
.LBE579:
.LBE578:
.LBE577:
.LBE576:
.LBE575:
.LBE574:
.LBB599:
.LBB572:
.LBB570:
	movq	%rax, (%rbx,%r14)
.LVL37:
	.loc 8 367 4 view .LVU99
.LBE570:
.LBE572:
.LBE599:
.LBB600:
.LBI574:
	.file 12 "C:/Program Files/CodeBlocks/MinGW/lib/gcc/x86_64-w64-mingw32/8.1.0/include/c++/bits/stl_uninitialized.h"
	.loc 12 305 5 is_stmt 1 view .LVU100
.LBB594:
.LBI594:
	.file 13 "C:/Program Files/CodeBlocks/MinGW/lib/gcc/x86_64-w64-mingw32/8.1.0/include/c++/bits/stl_iterator.h"
	.loc 13 1215 5 view .LVU101
.LBB595:
.LBI595:
	.loc 13 1030 7 view .LVU102
	.loc 13 1030 7 is_stmt 0 view .LVU103
.LBE595:
.LBE594:
.LBB596:
.LBI596:
	.loc 13 1215 5 is_stmt 1 view .LVU104
.LBB597:
.LBI597:
	.loc 13 1030 7 view .LVU105
	.loc 13 1030 7 is_stmt 0 view .LVU106
.LBE597:
.LBE596:
.LBB598:
.LBI575:
	.loc 12 287 5 is_stmt 1 view .LVU107
.LBB593:
.LBI576:
	.loc 12 115 5 view .LVU108
.LBB592:
.LBB591:
.LBI578:
	.loc 12 99 9 view .LVU109
.LBB590:
.LBI579:
	.loc 8 446 5 view .LVU110
.LBB589:
.LBI580:
	.loc 8 420 5 view .LVU111
.LBB588:
.LBI581:
	.loc 8 375 5 view .LVU112
.LBB587:
.LBB586:
.LBI583:
	.loc 8 357 2 view .LVU113
	.loc 8 357 2 is_stmt 0 view .LVU114
	leaq	(%r10,%r15), %rax
	movq	%rax, 32(%rsp)
.LBB585:
	.loc 8 367 4 view .LVU115
	je	.L20
	.loc 8 368 23 view .LVU116
	movq	%r14, %r8
	movq	%rsi, %rdx
	movq	%rbx, %rcx
	movq	%r10, 40(%rsp)
	call	memmove
.LVL38:
	.loc 8 368 23 view .LVU117
.LBE585:
.LBE586:
.LBE587:
.LBE588:
.LBE589:
.LBE590:
.LBE591:
.LBE592:
.LBE593:
.LBE598:
.LBE600:
.LBB601:
.LBI601:
	.loc 12 305 5 is_stmt 1 view .LVU118
.LBB602:
.LBI602:
	.loc 13 1215 5 view .LVU119
.LBB603:
.LBI603:
	.loc 13 1030 7 view .LVU120
	.loc 13 1030 7 is_stmt 0 view .LVU121
.LBE603:
.LBE602:
.LBB605:
.LBI605:
	.loc 13 1215 5 is_stmt 1 view .LVU122
.LBB606:
.LBI606:
	.loc 13 1030 7 view .LVU123
	.loc 13 1030 7 is_stmt 0 view .LVU124
.LBE606:
.LBE605:
.LBB608:
.LBI608:
	.loc 12 287 5 is_stmt 1 view .LVU125
.LBB609:
.LBI609:
	.loc 12 115 5 view .LVU126
.LBB610:
.LBB611:
.LBI611:
	.loc 12 99 9 view .LVU127
.LBB612:
.LBI612:
	.loc 8 446 5 view .LVU128
.LBB613:
.LBI613:
	.loc 8 420 5 view .LVU129
.LBB614:
.LBI614:
	.loc 8 375 5 view .LVU130
.LBB615:
.LBB616:
.LBI616:
	.loc 8 357 2 view .LVU131
.LBB617:
	.loc 8 367 4 is_stmt 0 view .LVU132
	cmpq	%r13, %rdi
	movq	40(%rsp), %r10
	je	.L24
.LVL39:
.L21:
	.loc 8 368 23 view .LVU133
	movq	%r15, %r8
	movq	%rdi, %rdx
	movq	%r10, %rcx
	call	memcpy
.LVL40:
.L23:
	.loc 8 368 23 view .LVU134
.LBE617:
.LBE616:
.LBE615:
.LBE614:
.LBE613:
.LBE612:
.LBE611:
.LBE610:
.LBE609:
.LBE608:
.LBE601:
.LBB630:
.LBI630:
	.loc 6 300 7 is_stmt 1 view .LVU135
.LBB631:
	.loc 6 303 2 is_stmt 0 view .LVU136
	testq	%rsi, %rsi
	jne	.L24
.LVL41:
.L22:
	.loc 6 303 2 view .LVU137
.LBE631:
.LBE630:
	.loc 7 471 7 view .LVU138
	movq	%rbx, %xmm0
	.loc 7 473 7 view .LVU139
	movq	%r12, 16(%rbp)
	.loc 7 471 7 view .LVU140
	movhps	32(%rsp), %xmm0
	movups	%xmm0, 0(%rbp)
	.loc 7 474 5 view .LVU141
	addq	$56, %rsp
	.cfi_remember_state
	.cfi_def_cfa_offset 72
	popq	%rbx
	.cfi_restore 3
	.cfi_def_cfa_offset 64
.LVL42:
	.loc 7 474 5 view .LVU142
	popq	%rsi
	.cfi_restore 4
	.cfi_def_cfa_offset 56
.LVL43:
	.loc 7 474 5 view .LVU143
	popq	%rdi
	.cfi_restore 5
	.cfi_def_cfa_offset 48
.LVL44:
	.loc 7 474 5 view .LVU144
	popq	%rbp
	.cfi_restore 6
	.cfi_def_cfa_offset 40
.LVL45:
	.loc 7 474 5 view .LVU145
	popq	%r12
	.cfi_restore 12
	.cfi_def_cfa_offset 32
	popq	%r13
	.cfi_restore 13
	.cfi_def_cfa_offset 24
.LVL46:
	.loc 7 474 5 view .LVU146
	popq	%r14
	.cfi_restore 14
	.cfi_def_cfa_offset 16
.LVL47:
	.loc 7 474 5 view .LVU147
	popq	%r15
	.cfi_restore 15
	.cfi_def_cfa_offset 8
	ret
.LVL48:
	.p2align 4,,10
.L24:
	.cfi_restore_state
.LBB636:
.LBB635:
.LBB632:
.LBI632:
	.loc 10 461 7 is_stmt 1 view .LVU148
.LBB633:
.LBI633:
	.loc 9 116 7 view .LVU149
.LBB634:
	.loc 9 125 19 is_stmt 0 view .LVU150
	movq	%rsi, %rcx
	call	_ZdlPv
.LVL49:
	.loc 9 125 19 view .LVU151
	jmp	.L22
.LVL50:
	.p2align 4,,10
.L30:
	.loc 9 125 19 view .LVU152
.LBE634:
.LBE633:
.LBE632:
.LBE635:
.LBE636:
.LBB637:
.LBB556:
	.loc 6 1641 25 view .LVU153
	movabsq	$2305843009213693951, %rax
	cmpq	%rax, %rdx
	ja	.L18
.LVL51:
	.loc 6 1641 25 view .LVU154
.LBE556:
.LBE637:
.LBB638:
.LBI638:
	.loc 6 698 7 is_stmt 1 view .LVU155
.LBB639:
.LBI639:
	.loc 13 780 7 view .LVU156
	.loc 13 780 7 is_stmt 0 view .LVU157
.LBE639:
.LBE638:
.LBB640:
.LBI561:
	.loc 6 293 7 is_stmt 1 view .LVU158
.LBB566:
	.loc 6 296 18 is_stmt 0 view .LVU159
	xorl	%r12d, %r12d
	xorl	%ebx, %ebx
	testq	%rdx, %rdx
	je	.L19
	jmp	.L17
.LVL52:
	.p2align 4,,10
.L20:
	.loc 6 296 18 view .LVU160
.LBE566:
.LBE640:
.LBB641:
	.loc 12 305 5 is_stmt 1 view .LVU161
.LBB627:
	.loc 13 1215 5 view .LVU162
.LBB604:
	.loc 13 1030 7 view .LVU163
	.loc 13 1030 7 is_stmt 0 view .LVU164
.LBE604:
.LBE627:
.LBB628:
	.loc 13 1215 5 is_stmt 1 view .LVU165
.LBB607:
	.loc 13 1030 7 view .LVU166
	.loc 13 1030 7 is_stmt 0 view .LVU167
.LBE607:
.LBE628:
.LBB629:
	.loc 12 287 5 is_stmt 1 view .LVU168
.LBB626:
	.loc 12 115 5 view .LVU169
.LBB625:
.LBB624:
	.loc 12 99 9 view .LVU170
.LBB623:
	.loc 8 446 5 view .LVU171
.LBB622:
	.loc 8 420 5 view .LVU172
.LBB621:
	.loc 8 375 5 view .LVU173
.LBB620:
.LBB619:
	.loc 8 357 2 view .LVU174
.LBB618:
	.loc 8 367 4 is_stmt 0 view .LVU175
	cmpq	%r13, %rdi
	jne	.L21
	jmp	.L23
.LVL53:
	.p2align 4,,10
.L25:
	.loc 8 367 4 view .LVU176
.LBE618:
.LBE619:
.LBE620:
.LBE621:
.LBE622:
.LBE623:
.LBE624:
.LBE625:
.LBE626:
.LBE629:
.LBE641:
.LBB642:
.LBB557:
	.loc 6 1640 18 view .LVU177
	movl	$1, %edx
.LVL54:
.L17:
	.loc 6 1640 18 view .LVU178
	leaq	0(,%rdx,8), %r12
	jmp	.L18
.LBE557:
.LBE642:
	.cfi_endproc
.LFE3197:
	.seh_endproc
	.text
	.p2align 4,,15
	.globl	_Z12all_divisersx
	.def	_Z12all_divisersx;	.scl	2;	.type	32;	.endef
	.seh_proc	_Z12all_divisersx
_Z12all_divisersx:
.LVL55:
.LFB2682:
	.loc 3 13 49 is_stmt 1 view -0
	.cfi_startproc
	.loc 3 13 49 is_stmt 0 view .LVU180
	pushq	%r12
	.seh_pushreg	%r12
	.cfi_def_cfa_offset 16
	.cfi_offset 12, -16
	pushq	%rbp
	.seh_pushreg	%rbp
	.cfi_def_cfa_offset 24
	.cfi_offset 6, -24
	pushq	%rdi
	.seh_pushreg	%rdi
	.cfi_def_cfa_offset 32
	.cfi_offset 5, -32
	pushq	%rsi
	.seh_pushreg	%rsi
	.cfi_def_cfa_offset 40
	.cfi_offset 4, -40
	pushq	%rbx
	.seh_pushreg	%rbx
	.cfi_def_cfa_offset 48
	.cfi_offset 3, -48
	subq	$112, %rsp
	.seh_stackalloc	112
	.cfi_def_cfa_offset 160
	movaps	%xmm6, 64(%rsp)
	.seh_savexmm	%xmm6, 64
	movaps	%xmm7, 80(%rsp)
	.seh_savexmm	%xmm7, 80
	movaps	%xmm8, 96(%rsp)
	.seh_savexmm	%xmm8, 96
	.cfi_offset 23, -96
	.cfi_offset 24, -80
	.cfi_offset 25, -64
	.seh_endprologue
	.loc 3 14 5 is_stmt 1 view .LVU181
.LVL56:
.LBB712:
.LBI712:
	.loc 4 61 3 view .LVU182
.LBB713:
	.loc 4 61 24 view .LVU183
.LBE713:
.LBE712:
.LBB717:
.LBB718:
	.loc 5 476 28 is_stmt 0 view .LVU184
	pxor	%xmm7, %xmm7
	pxor	%xmm8, %xmm8
.LBE718:
.LBE717:
.LBB721:
.LBB722:
.LBB723:
.LBB724:
	.loc 6 96 65 view .LVU185
	pxor	%xmm0, %xmm0
.LBE724:
.LBE723:
.LBE722:
.LBE721:
.LBB736:
.LBB714:
	.loc 4 61 51 view .LVU186
	movq	%rdx, %rax
	movq	%rdx, %rdi
.LBE714:
.LBE736:
	.loc 3 13 49 view .LVU187
	movq	%rcx, %rsi
.LBB737:
.LBB733:
.LBB730:
.LBB727:
	.loc 6 96 65 view .LVU188
	movups	%xmm0, (%rcx)
.LBE727:
.LBE730:
.LBE733:
.LBE737:
.LBB738:
.LBB715:
	.loc 4 61 51 view .LVU189
	sarq	$63, %rax
.LBE715:
.LBE738:
.LBB739:
.LBB734:
.LBB731:
.LBB728:
	.loc 6 96 65 view .LVU190
	movq	$0, 16(%rcx)
.LBE728:
.LBE731:
.LBE734:
.LBE739:
.LBB740:
.LBB716:
	.loc 4 61 51 view .LVU191
	xorq	%rax, %rdi
	subq	%rax, %rdi
.LVL57:
	.loc 4 61 51 view .LVU192
.LBE716:
.LBE740:
	.loc 3 15 5 is_stmt 1 view .LVU193
.LBB741:
.LBI721:
	.loc 6 391 7 view .LVU194
.LBB735:
.LBI722:
	.loc 6 248 7 view .LVU195
.LBB732:
.LBI723:
	.loc 6 95 2 view .LVU196
.LBB729:
.LBB725:
.LBI725:
	.file 14 "C:/Program Files/CodeBlocks/MinGW/lib/gcc/x86_64-w64-mingw32/8.1.0/include/c++/bits/allocator.h"
	.loc 14 131 7 view .LVU197
.LBB726:
.LBI726:
	.loc 9 79 7 view .LVU198
	.loc 9 79 7 is_stmt 0 view .LVU199
.LBE726:
.LBE725:
.LBE729:
.LBE732:
.LBE735:
.LBE741:
	.loc 3 16 5 is_stmt 1 view .LVU200
.LBB742:
.LBI717:
	.loc 5 475 5 view .LVU201
.LBB719:
	.loc 5 476 28 is_stmt 0 view .LVU202
	cvtsi2sdq	%rdi, %xmm7
	ucomisd	%xmm7, %xmm8
	sqrtsd	%xmm7, %xmm6
	ja	.L54
.LVL58:
	.loc 5 476 28 view .LVU203
.LBE719:
.LBE742:
	.loc 3 16 29 view .LVU204
	cvttsd2si	%xmm6, %ebp
.LVL59:
	.loc 3 17 5 is_stmt 1 view .LVU205
.LBB743:
	.loc 3 17 18 is_stmt 0 view .LVU206
	testl	%ebp, %ebp
	jle	.L47
	xorl	%ecx, %ecx
.LVL60:
.L48:
.LBB744:
.LBB745:
.LBB746:
	.loc 7 109 4 view .LVU207
	leaq	56(%rsp), %r12
.LBE746:
.LBE745:
.LBE744:
	.loc 3 17 18 view .LVU208
	movl	$1, %ebx
	jmp	.L37
.LVL61:
	.p2align 4,,10
.L34:
	.loc 3 17 18 view .LVU209
	addq	$1, %rbx
.LVL62:
	.loc 3 17 18 discriminator 2 view .LVU210
	cmpl	%ebx, %ebp
	jl	.L33
.L37:
.LVL63:
	.loc 3 18 9 is_stmt 1 view .LVU211
	.loc 3 18 18 is_stmt 0 view .LVU212
	movq	%rdi, %rax
	cqto
	idivq	%rbx
	.loc 3 18 9 view .LVU213
	testq	%rdx, %rdx
	jne	.L34
	.loc 3 18 25 is_stmt 1 discriminator 1 view .LVU214
.LBB769:
.LBB764:
.LBB759:
	.loc 7 100 2 is_stmt 0 discriminator 1 view .LVU215
	cmpq	%rcx, 16(%rsi)
.LBE759:
.LBE764:
.LBE769:
	.loc 3 18 39 discriminator 1 view .LVU216
	movq	%rbx, 56(%rsp)
.LVL64:
.LBB770:
.LBI744:
	.loc 6 1090 7 is_stmt 1 discriminator 1 view .LVU217
.LBB765:
.LBI745:
	.loc 7 97 7 discriminator 1 view .LVU218
.LBB760:
	.loc 7 100 2 is_stmt 0 discriminator 1 view .LVU219
	je	.L35
.LVL65:
.LBB747:
.LBI747:
	.loc 10 474 2 is_stmt 1 view .LVU220
.LBB748:
.LBI748:
	.loc 9 135 2 view .LVU221
	.loc 9 135 2 is_stmt 0 view .LVU222
.LBE748:
.LBE747:
.LBE760:
.LBE765:
.LBE770:
.LBE743:
	.loc 11 169 3 is_stmt 1 view .LVU223
.LBB774:
.LBB771:
.LBB766:
.LBB761:
.LBB751:
.LBB750:
.LBB749:
	.loc 11 169 3 is_stmt 0 view .LVU224
	movq	%rbx, (%rcx)
.LVL66:
	.loc 11 169 3 view .LVU225
	addq	$1, %rbx
.LVL67:
	.loc 11 169 3 view .LVU226
.LBE749:
.LBE750:
.LBE751:
	.loc 7 105 6 view .LVU227
	addq	$8, %rcx
.LBE761:
.LBE766:
.LBE771:
	.loc 3 17 18 view .LVU228
	cmpl	%ebx, %ebp
.LBB772:
.LBB767:
.LBB762:
	.loc 7 105 6 view .LVU229
	movq	%rcx, 8(%rsi)
	.loc 7 105 6 view .LVU230
.LBE762:
.LBE767:
.LBE772:
	.loc 3 17 18 view .LVU231
	jge	.L37
.LVL68:
.L33:
	.loc 3 17 18 view .LVU232
.LBE774:
	.loc 3 20 5 is_stmt 1 view .LVU233
.LBB775:
.LBB776:
.LBI776:
	.loc 6 805 7 view .LVU234
.LBB777:
	.loc 6 806 50 is_stmt 0 view .LVU235
	subq	(%rsi), %rcx
	sarq	$3, %rcx
.LVL69:
	.loc 6 806 50 view .LVU236
.LBE777:
.LBE776:
.LBB779:
.LBI779:
	.loc 3 8 6 is_stmt 1 view .LVU237
.LBB780:
	.loc 3 9 5 view .LVU238
	.loc 3 9 5 is_stmt 0 view .LVU239
.LBE780:
.LBE779:
.LBE775:
	.loc 4 61 24 is_stmt 1 view .LVU240
.LBB834:
.LBB795:
.LBB790:
.LBB781:
.LBI781:
	.loc 5 475 5 view .LVU241
	ucomisd	%xmm7, %xmm8
	ja	.L55
.L38:
.LVL70:
	.loc 5 475 5 is_stmt 0 view .LVU242
.LBE781:
	.loc 3 9 38 view .LVU243
	pxor	%xmm8, %xmm8
	cvtsi2sd	%ebp, %xmm8
.LVL71:
	.loc 3 9 38 view .LVU244
.LBE790:
.LBE795:
.LBE834:
	.loc 4 61 24 is_stmt 1 view .LVU245
.LBB835:
.LBB796:
.LBB791:
.LBB784:
.LBI784:
	.loc 5 475 5 view .LVU246
.L46:
	.loc 5 475 5 is_stmt 0 view .LVU247
.LBE784:
	.loc 3 9 58 view .LVU248
	xorl	%eax, %eax
	ucomisd	%xmm8, %xmm6
	movl	$0, %edx
	setnp	%al
	cmovne	%edx, %eax
.LVL72:
	.loc 3 9 58 view .LVU249
.LBE791:
.LBE796:
	.loc 3 20 65 view .LVU250
	subl	%eax, %ecx
.LVL73:
	.loc 3 20 65 view .LVU251
	je	.L31
	leal	-1(%rcx), %edx
	movslq	%ecx, %rax
	leaq	-8(,%rax,8), %rbx
	subq	%rdx, %rax
	leaq	-16(,%rax,8), %rbp
.LVL74:
.LBB797:
.LBB798:
.LBB799:
	.loc 7 109 4 view .LVU252
	leaq	56(%rsp), %r12
	jmp	.L43
.LVL75:
	.p2align 4,,10
.L56:
.LBB800:
.LBI800:
	.loc 10 474 2 is_stmt 1 view .LVU253
.LBB801:
.LBI801:
	.loc 9 135 2 view .LVU254
	.loc 9 135 2 is_stmt 0 view .LVU255
.LBE801:
.LBE800:
.LBE799:
.LBE798:
.LBE797:
.LBE835:
	.loc 11 169 3 is_stmt 1 view .LVU256
	.loc 11 169 3 is_stmt 0 view .LVU257
	subq	$8, %rbx
.LBB836:
.LBB825:
.LBB821:
.LBB817:
.LBB804:
.LBB803:
.LBB802:
	movq	%rax, (%rdx)
.LVL76:
	.loc 11 169 3 view .LVU258
.LBE802:
.LBE803:
.LBE804:
	.loc 7 105 6 view .LVU259
	addq	$8, %rdx
.LBE817:
.LBE821:
.LBE825:
	.loc 3 20 65 view .LVU260
	cmpq	%rbp, %rbx
.LBB826:
.LBB822:
.LBB818:
	.loc 7 105 6 view .LVU261
	movq	%rdx, 8(%rsi)
.LVL77:
.LBB805:
.LBI805:
	.loc 6 1030 7 is_stmt 1 view .LVU262
.LBB806:
.LBI806:
	.loc 6 716 7 view .LVU263
.LBB807:
.LBI807:
	.loc 13 780 7 view .LVU264
	.loc 13 780 7 is_stmt 0 view .LVU265
.LBE807:
.LBE806:
.LBB809:
.LBI809:
	.loc 13 841 7 is_stmt 1 view .LVU266
.LBB810:
.LBI810:
	.loc 13 780 7 view .LVU267
	.loc 13 780 7 is_stmt 0 view .LVU268
.LBE810:
.LBE809:
.LBE805:
.LBE818:
.LBE822:
.LBE826:
	.loc 3 20 65 view .LVU269
	je	.L31
.LVL78:
.L43:
.LBB827:
.LBI827:
	.loc 6 930 7 is_stmt 1 discriminator 3 view .LVU270
	.loc 6 930 7 is_stmt 0 discriminator 3 view .LVU271
.LBE827:
	.loc 3 20 90 discriminator 3 view .LVU272
	movq	(%rsi), %rcx
	movq	%rdi, %rax
	cqto
	idivq	(%rcx,%rbx)
.LBB828:
.LBB823:
.LBB819:
	.loc 7 100 20 discriminator 3 view .LVU273
	movq	8(%rsi), %rdx
.LBE819:
.LBE823:
.LBE828:
	.loc 3 20 90 discriminator 3 view .LVU274
	movq	%rax, 56(%rsp)
.LVL79:
.LBB829:
.LBI797:
	.loc 6 1090 7 is_stmt 1 discriminator 3 view .LVU275
.LBB824:
.LBI798:
	.loc 7 97 7 discriminator 3 view .LVU276
.LBB820:
	.loc 7 100 2 is_stmt 0 discriminator 3 view .LVU277
	cmpq	16(%rsi), %rdx
	jne	.L56
.LVL80:
.LBB814:
.LBI814:
	.loc 6 716 7 is_stmt 1 view .LVU278
.LBB815:
.LBI815:
	.loc 13 780 7 view .LVU279
	.loc 13 780 7 is_stmt 0 view .LVU280
.LBE815:
.LBE814:
	.loc 7 109 4 view .LVU281
	movq	%r12, %r8
	movq	%rsi, %rcx
.LEHB0:
	call	_ZNSt6vectorIxSaIxEE17_M_realloc_insertIJxEEEvN9__gnu_cxx17__normal_iteratorIPxS1_EEDpOT_
.LVL81:
.LBB816:
	.loc 6 1030 7 is_stmt 1 view .LVU282
.LBB812:
	.loc 6 716 7 view .LVU283
.LBB808:
	.loc 13 780 7 view .LVU284
	.loc 13 780 7 is_stmt 0 view .LVU285
.LBE808:
.LBE812:
.LBB813:
	.loc 13 841 7 is_stmt 1 view .LVU286
.LBB811:
	.loc 13 780 7 view .LVU287
	.loc 13 780 7 is_stmt 0 view .LVU288
	subq	$8, %rbx
.LBE811:
.LBE813:
.LBE816:
.LBE820:
.LBE824:
.LBE829:
	.loc 3 20 65 view .LVU289
	cmpq	%rbp, %rbx
	jne	.L43
.LVL82:
.L31:
	.loc 3 20 65 view .LVU290
.LBE836:
	.loc 3 22 1 view .LVU291
	movaps	64(%rsp), %xmm6
	movq	%rsi, %rax
	movaps	80(%rsp), %xmm7
	movaps	96(%rsp), %xmm8
	addq	$112, %rsp
	.cfi_remember_state
	.cfi_restore 25
	.cfi_restore 24
	.cfi_restore 23
	.cfi_def_cfa_offset 48
	popq	%rbx
	.cfi_restore 3
	.cfi_def_cfa_offset 40
	popq	%rsi
	.cfi_restore 4
	.cfi_def_cfa_offset 32
.LVL83:
	.loc 3 22 1 view .LVU292
	popq	%rdi
	.cfi_restore 5
	.cfi_def_cfa_offset 24
.LVL84:
	.loc 3 22 1 view .LVU293
	popq	%rbp
	.cfi_restore 6
	.cfi_def_cfa_offset 16
	popq	%r12
	.cfi_restore 12
	.cfi_def_cfa_offset 8
	ret
.LVL85:
	.p2align 4,,10
.L35:
	.cfi_restore_state
.LBB837:
.LBB773:
.LBB768:
.LBB763:
.LBB752:
.LBI752:
	.loc 6 716 7 is_stmt 1 view .LVU294
.LBB753:
.LBI753:
	.loc 13 780 7 view .LVU295
	.loc 13 780 7 is_stmt 0 view .LVU296
.LBE753:
.LBE752:
	.loc 7 109 4 view .LVU297
	movq	%rcx, %rdx
	movq	%r12, %r8
	movq	%rsi, %rcx
	call	_ZNSt6vectorIxSaIxEE17_M_realloc_insertIJxEEEvN9__gnu_cxx17__normal_iteratorIPxS1_EEDpOT_
.LVL86:
.LEHE0:
	movq	8(%rsi), %rcx
.LVL87:
.LBB754:
.LBI754:
	.loc 6 1030 7 is_stmt 1 view .LVU298
.LBB755:
.LBI755:
	.loc 6 716 7 view .LVU299
.LBB756:
.LBI756:
	.loc 13 780 7 view .LVU300
	.loc 13 780 7 is_stmt 0 view .LVU301
.LBE756:
.LBE755:
.LBB757:
.LBI757:
	.loc 13 841 7 is_stmt 1 view .LVU302
.LBB758:
.LBI758:
	.loc 13 780 7 view .LVU303
	.loc 13 780 7 is_stmt 0 view .LVU304
	jmp	.L34
.LVL88:
	.p2align 4,,10
.L47:
	.loc 13 780 7 view .LVU305
.LBE758:
.LBE757:
.LBE754:
.LBE763:
.LBE768:
.LBE773:
.LBE837:
	.loc 3 20 5 is_stmt 1 view .LVU306
.LBB838:
.LBB830:
	.loc 6 805 7 view .LVU307
.LBB778:
	.loc 6 806 50 is_stmt 0 view .LVU308
	movq	(%rsi), %rcx
.LVL89:
	.loc 6 806 50 view .LVU309
	negq	%rcx
	sarq	$3, %rcx
.LVL90:
	.loc 6 806 50 view .LVU310
.LBE778:
.LBE830:
.LBB831:
	.loc 3 8 6 is_stmt 1 view .LVU311
.LBB792:
	.loc 3 9 5 view .LVU312
	.loc 3 9 5 is_stmt 0 view .LVU313
.LBE792:
.LBE831:
.LBE838:
	.loc 4 61 24 is_stmt 1 view .LVU314
.LBB839:
.LBB832:
.LBB793:
.LBB786:
	.loc 5 475 5 view .LVU315
	jmp	.L38
.LVL91:
.L55:
.LBB782:
	.loc 5 476 28 is_stmt 0 view .LVU316
	movapd	%xmm7, %xmm0
	movl	%ecx, 44(%rsp)
	.loc 5 476 28 view .LVU317
.LBE782:
.LBE786:
	.loc 3 9 38 view .LVU318
	pxor	%xmm8, %xmm8
.LBB787:
.LBB783:
	.loc 5 476 28 view .LVU319
	call	sqrt
.LVL92:
	.loc 5 476 28 view .LVU320
.LBE783:
.LBE787:
.LBB788:
.LBB785:
	movapd	%xmm7, %xmm0
	call	sqrt
.LVL93:
	movl	44(%rsp), %ecx
.LBE785:
.LBE788:
	.loc 3 9 38 view .LVU321
	cvtsi2sd	%ebp, %xmm8
.LVL94:
	.loc 3 9 38 view .LVU322
.LBE793:
.LBE832:
.LBE839:
	.loc 4 61 24 is_stmt 1 view .LVU323
.LBB840:
.LBB833:
.LBB794:
.LBB789:
	.loc 5 475 5 view .LVU324
	.loc 5 475 5 is_stmt 0 view .LVU325
	jmp	.L46
.LVL95:
.L54:
	.loc 5 475 5 view .LVU326
.LBE789:
.LBE794:
.LBE833:
.LBE840:
.LBB841:
.LBB720:
	.loc 5 476 28 view .LVU327
	movapd	%xmm7, %xmm0
	call	sqrt
.LVL96:
	.loc 5 476 28 view .LVU328
	movq	8(%rsi), %rcx
.LVL97:
	.loc 5 476 28 view .LVU329
.LBE720:
.LBE841:
	.loc 3 16 29 view .LVU330
	cvttsd2si	%xmm6, %ebp
.LVL98:
	.loc 3 17 5 is_stmt 1 view .LVU331
.LBB842:
	.loc 3 17 18 is_stmt 0 view .LVU332
	testl	%ebp, %ebp
	jg	.L48
	jmp	.L33
.LVL99:
.L49:
	.loc 3 17 18 view .LVU333
.LBE842:
.LBB843:
.LBB844:
	.loc 6 567 15 view .LVU334
	movq	(%rsi), %rcx
	movq	%rax, %rbx
.LVL100:
.LBB845:
.LBI845:
	.loc 6 237 7 is_stmt 1 view .LVU335
	.loc 6 237 7 is_stmt 0 view .LVU336
.LBE845:
.LBB846:
.LBI846:
	.file 15 "C:/Program Files/CodeBlocks/MinGW/lib/gcc/x86_64-w64-mingw32/8.1.0/include/c++/bits/stl_construct.h"
	.loc 15 203 5 is_stmt 1 view .LVU337
	.loc 15 203 5 is_stmt 0 view .LVU338
.LBE846:
.LBB847:
.LBI847:
	.loc 6 283 7 is_stmt 1 view .LVU339
.LBB848:
.LBI848:
	.loc 6 300 7 view .LVU340
.LBB849:
	.loc 6 303 2 is_stmt 0 view .LVU341
	testq	%rcx, %rcx
	je	.L45
.LVL101:
.LBB850:
.LBI850:
	.loc 10 461 7 is_stmt 1 view .LVU342
.LBB851:
.LBI851:
	.loc 9 116 7 view .LVU343
.LBB852:
	.loc 9 125 19 is_stmt 0 view .LVU344
	call	_ZdlPv
.LVL102:
.L45:
	.loc 9 125 19 view .LVU345
.LBE852:
.LBE851:
.LBE850:
.LBE849:
.LBE848:
.LBB853:
.LBI853:
	.loc 6 88 14 is_stmt 1 view .LVU346
.LBB854:
.LBI854:
	.loc 14 139 7 view .LVU347
.LBB855:
.LBI855:
	.loc 9 86 7 view .LVU348
	.loc 9 86 7 is_stmt 0 view .LVU349
	movq	%rbx, %rcx
.LEHB1:
	call	_Unwind_Resume
	nop
.LVL103:
.LEHE1:
.LBE855:
.LBE854:
.LBE853:
.LBE847:
.LBE844:
.LBE843:
	.cfi_endproc
.LFE2682:
	.def	__gxx_personality_seh0;	.scl	2;	.type	32;	.endef
	.seh_handler	__gxx_personality_seh0, @unwind, @except
	.seh_handlerdata
.LLSDA2682:
	.byte	0xff
	.byte	0xff
	.byte	0x1
	.uleb128 .LLSDACSE2682-.LLSDACSB2682
.LLSDACSB2682:
	.uleb128 .LEHB0-.LFB2682
	.uleb128 .LEHE0-.LEHB0
	.uleb128 .L49-.LFB2682
	.uleb128 0
	.uleb128 .LEHB1-.LFB2682
	.uleb128 .LEHE1-.LEHB1
	.uleb128 0
	.uleb128 0
.LLSDACSE2682:
	.text
	.seh_endproc
	.def	__main;	.scl	2;	.type	32;	.endef
	.section .rdata,"dr"
.LC1:
	.ascii " \0"
	.section	.text.startup,"x"
	.p2align 4,,15
	.globl	main
	.def	main;	.scl	2;	.type	32;	.endef
	.seh_proc	main
main:
.LFB2686:
	.loc 3 42 1 is_stmt 1 view -0
	.cfi_startproc
	pushq	%r14
	.seh_pushreg	%r14
	.cfi_def_cfa_offset 16
	.cfi_offset 14, -16
	pushq	%r13
	.seh_pushreg	%r13
	.cfi_def_cfa_offset 24
	.cfi_offset 13, -24
	pushq	%r12
	.seh_pushreg	%r12
	.cfi_def_cfa_offset 32
	.cfi_offset 12, -32
	pushq	%rbp
	.seh_pushreg	%rbp
	.cfi_def_cfa_offset 40
	.cfi_offset 6, -40
	pushq	%rdi
	.seh_pushreg	%rdi
	.cfi_def_cfa_offset 48
	.cfi_offset 5, -48
	pushq	%rsi
	.seh_pushreg	%rsi
	.cfi_def_cfa_offset 56
	.cfi_offset 4, -56
	pushq	%rbx
	.seh_pushreg	%rbx
	.cfi_def_cfa_offset 64
	.cfi_offset 3, -64
	subq	$64, %rsp
	.seh_stackalloc	64
	.cfi_def_cfa_offset 128
	.seh_endprologue
	.loc 3 44 9 is_stmt 0 view .LVU351
	movl	$-1, %edi
.LBB912:
.LBB913:
.LBB914:
.LBB915:
	.loc 3 34 25 view .LVU352
	movl	$1, %esi
	movl	$1, %ebx
	leaq	_ZNKSt5ctypeIcE8do_widenEc(%rip), %r13
.LBE915:
.LBE914:
.LBE913:
.LBE912:
	.loc 3 42 1 view .LVU353
	call	__main
.LVL104:
	.loc 3 44 5 is_stmt 1 view .LVU354
	.loc 3 45 5 view .LVU355
.LBB980:
.LBB977:
	.loc 3 46 9 view .LVU356
.LBB944:
.LBI914:
	.loc 3 33 5 view .LVU357
.LBB940:
	.loc 3 34 5 view .LVU358
.LBE940:
.LBE944:
	.loc 3 47 9 is_stmt 0 view .LVU359
	cmpl	%edi, %esi
	.loc 3 49 26 view .LVU360
	movq	.refptr._ZSt4cout(%rip), %r12
.LBB945:
.LBB941:
.LBB916:
.LBB917:
	.loc 3 36 30 view .LVU361
	leaq	32(%rsp), %rbp
	leal	-1(%rbx), %edx
.LVL105:
	.loc 3 36 30 view .LVU362
.LBE917:
.LBE916:
.LBE941:
.LBE945:
	.loc 3 47 9 is_stmt 1 view .LVU363
	jg	.L72
.LVL106:
	.p2align 4,,10
.L63:
	.loc 3 47 9 is_stmt 0 view .LVU364
.LBE977:
	.loc 3 45 20 discriminator 2 view .LVU365
	cmpq	$10000000, %rbx
	je	.L73
.L67:
.LBB978:
	.loc 3 46 9 is_stmt 1 view .LVU366
.LVL107:
.LBB946:
	.loc 3 33 5 view .LVU367
.LBB942:
	.loc 3 34 5 view .LVU368
	cmpq	$3, %rbx
	.loc 3 34 25 is_stmt 0 view .LVU369
	movl	$1, %esi
.LVL108:
	.loc 3 34 5 view .LVU370
	jbe	.L59
.LVL109:
.LBB938:
.LBB936:
	.loc 3 36 5 is_stmt 1 view .LVU371
	.loc 3 36 30 is_stmt 0 view .LVU372
	movq	%rbx, %rdx
	movq	%rbp, %rcx
	call	_Z12all_divisersx
.LVL110:
	.loc 3 38 5 is_stmt 1 view .LVU373
.LBB918:
.LBI918:
	.loc 3 24 5 view .LVU374
.LBB919:
.LBB920:
	.loc 3 26 36 is_stmt 0 view .LVU375
	movq	32(%rsp), %r10
.LVL111:
	.loc 3 26 28 view .LVU376
	movq	%rbx, %rax
	cqto
	movq	8(%r10), %r8
	idivq	%r8
	.loc 3 26 38 view .LVU377
	cmpq	%rax, %r8
	.loc 3 26 28 view .LVU378
	movq	%rax, %rcx
.LVL112:
	.loc 3 26 38 view .LVU379
	jg	.L60
	movl	$1, %r9d
.LVL113:
.L62:
	.loc 3 27 9 is_stmt 1 view .LVU380
	.loc 3 27 17 is_stmt 0 view .LVU381
	movq	%rbx, %rax
	cqto
	idivq	%r8
	.loc 3 27 9 view .LVU382
	testq	%rdx, %rdx
	je	.L74
.L61:
.LVL114:
	.loc 3 26 28 view .LVU383
	movq	8(%r10,%r9,8), %r8
	movq	%rbx, %rax
	addq	$1, %r9
.LVL115:
	.loc 3 26 28 view .LVU384
	cqto
	idivq	%r8
	.loc 3 26 38 view .LVU385
	cmpq	%rax, %r8
	.loc 3 26 28 view .LVU386
	movq	%rax, %rcx
	.loc 3 26 38 view .LVU387
	jle	.L62
.LVL116:
.L60:
	.loc 3 26 38 view .LVU388
.LBE920:
	.loc 3 29 5 is_stmt 1 view .LVU389
	.loc 3 29 5 is_stmt 0 view .LVU390
.LBE919:
.LBE918:
.LBB923:
.LBI923:
	.loc 6 565 7 is_stmt 1 view .LVU391
.LBB924:
.LBI924:
	.loc 6 237 7 view .LVU392
	.loc 6 237 7 is_stmt 0 view .LVU393
.LBE924:
.LBB925:
.LBI925:
	.loc 15 203 5 is_stmt 1 view .LVU394
	.loc 15 203 5 is_stmt 0 view .LVU395
.LBE925:
.LBB926:
.LBI926:
	.loc 6 283 7 is_stmt 1 view .LVU396
.LBB927:
.LBI927:
	.loc 6 300 7 view .LVU397
.LBB928:
.LBB929:
.LBI929:
	.loc 10 461 7 view .LVU398
.LBB930:
.LBI930:
	.loc 9 116 7 view .LVU399
.LBB931:
	.loc 9 125 19 is_stmt 0 view .LVU400
	movq	%r10, %rcx
	call	_ZdlPv
.LVL117:
	.loc 9 125 19 view .LVU401
.LBE931:
.LBE930:
.LBE929:
.LBE928:
.LBE927:
.LBB932:
.LBI932:
	.loc 6 88 14 is_stmt 1 view .LVU402
.LBB933:
.LBI933:
	.loc 14 139 7 view .LVU403
.LBB934:
.LBI934:
	.loc 9 86 7 view .LVU404
.L59:
	.loc 9 86 7 is_stmt 0 view .LVU405
	addq	$1, %rbx
.LVL118:
	.loc 9 86 7 view .LVU406
.LBE934:
.LBE933:
.LBE932:
.LBE926:
.LBE923:
.LBE936:
.LBE938:
.LBE942:
.LBE946:
	.loc 3 47 9 view .LVU407
	cmpl	%edi, %esi
	leal	-1(%rbx), %edx
.LVL119:
	.loc 3 47 9 is_stmt 1 view .LVU408
	jle	.L63
.LVL120:
.L72:
	.loc 3 48 13 view .LVU409
	.loc 3 49 13 view .LVU410
	.loc 3 49 26 is_stmt 0 view .LVU411
	movq	%r12, %rcx
	call	_ZNSolsEi
.LVL121:
.LBB947:
.LBB948:
	.file 16 "C:/Program Files/CodeBlocks/MinGW/lib/gcc/x86_64-w64-mingw32/8.1.0/include/c++/ostream"
	.loc 16 561 18 view .LVU412
	movl	$1, %r8d
	leaq	.LC1(%rip), %rdx
.LBE948:
.LBE947:
	.loc 3 49 26 view .LVU413
	movq	%rax, %rdi
.LVL122:
.LBB950:
.LBI947:
	.loc 16 556 5 is_stmt 1 view .LVU414
.LBB949:
	.loc 16 561 18 is_stmt 0 view .LVU415
	movq	%rax, %rcx
	call	_ZSt16__ostream_insertIcSt11char_traitsIcEERSt13basic_ostreamIT_T0_ES6_PKS3_x
.LVL123:
	.loc 16 561 18 view .LVU416
.LBE949:
.LBE950:
	.loc 3 49 33 view .LVU417
	movq	%rdi, %rcx
	movl	%esi, %edx
	call	_ZNSolsEi
.LVL124:
	movq	%rax, %r14
.LVL125:
.LBB951:
.LBI951:
	.loc 16 108 7 is_stmt 1 view .LVU418
.LBB952:
.LBI952:
	.loc 16 590 5 view .LVU419
.LBB953:
.LBB954:
.LBI954:
	.file 17 "C:/Program Files/CodeBlocks/MinGW/lib/gcc/x86_64-w64-mingw32/8.1.0/include/c++/bits/basic_ios.h"
	.loc 17 449 7 view .LVU420
	.loc 17 449 7 is_stmt 0 view .LVU421
.LBE954:
	.loc 16 591 19 view .LVU422
	movq	(%rax), %rax
.LVL126:
.LBB967:
.LBB955:
	.loc 17 450 30 view .LVU423
	movq	-24(%rax), %rax
.LVL127:
	.loc 17 450 30 view .LVU424
	movq	240(%r14,%rax), %rdi
.LVL128:
.LBB956:
.LBI956:
	.loc 17 47 5 is_stmt 1 view .LVU425
.LBB957:
	.loc 17 49 7 is_stmt 0 view .LVU426
	testq	%rdi, %rdi
	je	.L75
.LVL129:
	.loc 17 49 7 view .LVU427
.LBE957:
.LBE956:
.LBB959:
.LBI959:
	.loc 1 872 7 is_stmt 1 view .LVU428
.LBB960:
	.loc 1 874 2 view .LVU429
	cmpb	$0, 56(%rdi)
	je	.L65
	.loc 1 875 4 view .LVU430
	movsbl	67(%rdi), %edx
.LVL130:
.L66:
	.loc 1 875 4 is_stmt 0 view .LVU431
.LBE960:
.LBE959:
.LBE955:
.LBE967:
	.loc 16 591 19 view .LVU432
	movq	%r14, %rcx
.LBB968:
.LBB969:
	.loc 16 613 25 view .LVU433
	movl	%esi, %edi
.LBE969:
.LBE968:
	.loc 16 591 19 view .LVU434
	call	_ZNSo3putEc
.LVL131:
.LBB971:
.LBI968:
	.loc 16 612 5 is_stmt 1 view .LVU435
.LBB970:
	.loc 16 613 25 is_stmt 0 view .LVU436
	movq	%rax, %rcx
	call	_ZNSo5flushEv
.LVL132:
	.loc 16 613 25 view .LVU437
.LBE970:
.LBE971:
.LBE953:
.LBE952:
.LBE951:
.LBE978:
	.loc 3 45 20 view .LVU438
	cmpq	$10000000, %rbx
	jne	.L67
.LVL133:
.L73:
	.loc 3 45 20 view .LVU439
.LBE980:
	.loc 3 55 5 is_stmt 1 view .LVU440
	.loc 3 56 1 is_stmt 0 view .LVU441
	xorl	%eax, %eax
	addq	$64, %rsp
	.cfi_remember_state
	.cfi_def_cfa_offset 64
	popq	%rbx
	.cfi_restore 3
	.cfi_def_cfa_offset 56
.LVL134:
	.loc 3 56 1 view .LVU442
	popq	%rsi
	.cfi_restore 4
	.cfi_def_cfa_offset 48
.LVL135:
	.loc 3 56 1 view .LVU443
	popq	%rdi
	.cfi_restore 5
	.cfi_def_cfa_offset 40
.LVL136:
	.loc 3 56 1 view .LVU444
	popq	%rbp
	.cfi_restore 6
	.cfi_def_cfa_offset 32
	popq	%r12
	.cfi_restore 12
	.cfi_def_cfa_offset 24
	popq	%r13
	.cfi_restore 13
	.cfi_def_cfa_offset 16
	popq	%r14
	.cfi_restore 14
	.cfi_def_cfa_offset 8
	ret
.LVL137:
	.p2align 4,,10
.L74:
	.cfi_restore_state
.LBB981:
.LBB979:
.LBB975:
.LBB943:
.LBB939:
.LBB937:
.LBB935:
.LBB922:
.LBB921:
	.loc 3 27 33 is_stmt 1 view .LVU445
	.loc 3 27 50 is_stmt 0 view .LVU446
	movq	%rbp, %r8
	movl	%r9d, %edx
	call	_Z10requr_calciiRKSt6vectorIxSaIxEE
.LVL138:
	.loc 3 27 37 view .LVU447
	addl	%eax, %esi
.LVL139:
	.loc 3 27 37 view .LVU448
	jmp	.L61
.LVL140:
	.p2align 4,,10
.L65:
	.loc 3 27 37 view .LVU449
.LBE921:
.LBE922:
.LBE935:
.LBE937:
.LBE939:
.LBE943:
.LBE975:
.LBB976:
.LBB974:
.LBB973:
.LBB972:
.LBB966:
.LBB964:
.LBB963:
.LBB961:
.LBB962:
	.loc 1 876 2 is_stmt 1 view .LVU450
	.loc 1 876 21 is_stmt 0 view .LVU451
	movq	%rdi, %rcx
	call	_ZNKSt5ctypeIcE13_M_widen_initEv
.LVL141:
	.loc 1 877 2 is_stmt 1 view .LVU452
	.loc 1 877 27 is_stmt 0 view .LVU453
	movq	(%rdi), %rax
	movl	$10, %edx
	movq	48(%rax), %rax
	cmpq	%r13, %rax
	je	.L66
	.loc 1 877 23 view .LVU454
	movq	%rdi, %rcx
	call	*%rax
.LVL142:
	movsbl	%al, %edx
	jmp	.L66
.LVL143:
.L75:
	.loc 1 877 23 view .LVU455
.LBE962:
.LBE961:
.LBE963:
.LBE964:
.LBB965:
.LBB958:
	.loc 17 50 18 view .LVU456
	call	_ZSt16__throw_bad_castv
	nop
.LVL144:
	.loc 17 50 18 view .LVU457
.LBE958:
.LBE965:
.LBE966:
.LBE972:
.LBE973:
.LBE974:
.LBE976:
.LBE979:
.LBE981:
	.cfi_endproc
.LFE2686:
	.seh_endproc
	.text
	.p2align 4,,15
	.globl	_Z7A001055i
	.def	_Z7A001055i;	.scl	2;	.type	32;	.endef
	.seh_proc	_Z7A001055i
_Z7A001055i:
.LVL145:
.LFB2685:
	.loc 3 33 21 is_stmt 1 view -0
	.cfi_startproc
	.loc 3 33 21 is_stmt 0 view .LVU459
	pushq	%rdi
	.seh_pushreg	%rdi
	.cfi_def_cfa_offset 16
	.cfi_offset 5, -16
	pushq	%rsi
	.seh_pushreg	%rsi
	.cfi_def_cfa_offset 24
	.cfi_offset 4, -24
	pushq	%rbx
	.seh_pushreg	%rbx
	.cfi_def_cfa_offset 32
	.cfi_offset 3, -32
	subq	$64, %rsp
	.seh_stackalloc	64
	.cfi_def_cfa_offset 96
	.seh_endprologue
	.loc 3 34 5 is_stmt 1 view .LVU460
	.loc 3 34 25 is_stmt 0 view .LVU461
	movl	$1, %esi
	.loc 3 34 5 view .LVU462
	cmpl	$3, %ecx
	jg	.L84
	.loc 3 39 1 view .LVU463
	movl	%esi, %eax
	addq	$64, %rsp
	.cfi_remember_state
	.cfi_def_cfa_offset 32
	popq	%rbx
	.cfi_restore 3
	.cfi_def_cfa_offset 24
	popq	%rsi
	.cfi_restore 4
	.cfi_def_cfa_offset 16
	popq	%rdi
	.cfi_restore 5
	.cfi_def_cfa_offset 8
	ret
	.p2align 4,,10
.L84:
	.cfi_restore_state
.LVL146:
.LBB1010:
.LBB1011:
	.loc 3 36 5 is_stmt 1 view .LVU464
	.loc 3 36 30 is_stmt 0 view .LVU465
	leaq	32(%rsp), %rdi
	movslq	%ecx, %rbx
	movq	%rbx, %rdx
	movq	%rdi, %rcx
.LVL147:
	.loc 3 36 30 view .LVU466
	call	_Z12all_divisersx
.LVL148:
	.loc 3 38 5 is_stmt 1 view .LVU467
.LBB1012:
.LBI1012:
	.loc 3 24 5 view .LVU468
.LBB1013:
.LBB1014:
	.loc 3 26 36 is_stmt 0 view .LVU469
	movq	32(%rsp), %r10
.LVL149:
	.loc 3 26 28 view .LVU470
	movq	%rbx, %rax
	cqto
	movq	8(%r10), %r8
	idivq	%r8
	.loc 3 26 38 view .LVU471
	cmpq	%r8, %rax
	.loc 3 26 28 view .LVU472
	movq	%rax, %rcx
.LVL150:
	.loc 3 26 38 view .LVU473
	jl	.L78
	movl	$1, %r9d
.LVL151:
.L80:
	.loc 3 27 9 is_stmt 1 view .LVU474
	.loc 3 27 17 is_stmt 0 view .LVU475
	movq	%rbx, %rax
	cqto
	idivq	%r8
	.loc 3 27 9 view .LVU476
	testq	%rdx, %rdx
	je	.L85
.L79:
.LVL152:
	.loc 3 26 28 view .LVU477
	movq	8(%r10,%r9,8), %r8
	movq	%rbx, %rax
	addq	$1, %r9
.LVL153:
	.loc 3 26 28 view .LVU478
	cqto
	idivq	%r8
	.loc 3 26 38 view .LVU479
	cmpq	%rax, %r8
	.loc 3 26 28 view .LVU480
	movq	%rax, %rcx
	.loc 3 26 38 view .LVU481
	jle	.L80
.LVL154:
.L78:
	.loc 3 26 38 view .LVU482
.LBE1014:
	.loc 3 29 5 is_stmt 1 view .LVU483
	.loc 3 29 5 is_stmt 0 view .LVU484
.LBE1013:
.LBE1012:
.LBB1017:
.LBI1017:
	.loc 6 565 7 is_stmt 1 view .LVU485
.LBB1018:
.LBI1018:
	.loc 6 237 7 view .LVU486
	.loc 6 237 7 is_stmt 0 view .LVU487
.LBE1018:
.LBB1019:
.LBI1019:
	.loc 15 203 5 is_stmt 1 view .LVU488
	.loc 15 203 5 is_stmt 0 view .LVU489
.LBE1019:
.LBB1020:
.LBI1020:
	.loc 6 283 7 is_stmt 1 view .LVU490
.LBB1021:
.LBI1021:
	.loc 6 300 7 view .LVU491
.LBB1022:
.LBB1023:
.LBI1023:
	.loc 10 461 7 view .LVU492
.LBB1024:
.LBI1024:
	.loc 9 116 7 view .LVU493
.LBB1025:
	.loc 9 125 19 is_stmt 0 view .LVU494
	movq	%r10, %rcx
	call	_ZdlPv
.LVL155:
	.loc 9 125 19 view .LVU495
.LBE1025:
.LBE1024:
.LBE1023:
.LBE1022:
.LBE1021:
.LBB1026:
.LBI1026:
	.loc 6 88 14 is_stmt 1 view .LVU496
.LBB1027:
.LBI1027:
	.loc 14 139 7 view .LVU497
.LBB1028:
.LBI1028:
	.loc 9 86 7 view .LVU498
	.loc 9 86 7 is_stmt 0 view .LVU499
.LBE1028:
.LBE1027:
.LBE1026:
.LBE1020:
.LBE1017:
.LBE1011:
.LBE1010:
	.loc 3 39 1 view .LVU500
	movl	%esi, %eax
	addq	$64, %rsp
	.cfi_remember_state
	.cfi_def_cfa_offset 32
	popq	%rbx
	.cfi_restore 3
	.cfi_def_cfa_offset 24
.LVL156:
	.loc 3 39 1 view .LVU501
	popq	%rsi
	.cfi_restore 4
	.cfi_def_cfa_offset 16
	popq	%rdi
	.cfi_restore 5
	.cfi_def_cfa_offset 8
.LVL157:
	.loc 3 39 1 view .LVU502
	ret
.LVL158:
	.p2align 4,,10
.L85:
	.cfi_restore_state
.LBB1031:
.LBB1030:
.LBB1029:
.LBB1016:
.LBB1015:
	.loc 3 27 33 is_stmt 1 view .LVU503
	.loc 3 27 50 is_stmt 0 view .LVU504
	movq	%rdi, %r8
	movl	%r9d, %edx
	call	_Z10requr_calciiRKSt6vectorIxSaIxEE
.LVL159:
	.loc 3 27 37 view .LVU505
	addl	%eax, %esi
.LVL160:
	.loc 3 27 37 view .LVU506
	jmp	.L79
.LBE1015:
.LBE1016:
.LBE1029:
.LBE1030:
.LBE1031:
	.cfi_endproc
.LFE2685:
	.seh_endproc
	.section	.text.startup,"x"
	.p2align 4,,15
	.def	_GLOBAL__sub_I__Z8IsSquarex;	.scl	3;	.type	32;	.endef
	.seh_proc	_GLOBAL__sub_I__Z8IsSquarex
_GLOBAL__sub_I__Z8IsSquarex:
.LFB3402:
	.loc 3 56 1 is_stmt 1 view -0
	.cfi_startproc
	subq	$40, %rsp
	.seh_stackalloc	40
	.cfi_def_cfa_offset 48
	.seh_endprologue
.LVL161:
.LBB1032:
.LBI1032:
	.loc 3 56 1 view .LVU508
.LBB1033:
	.loc 2 74 25 is_stmt 0 view .LVU509
	leaq	_ZStL8__ioinit(%rip), %rcx
	call	_ZNSt8ios_base4InitC1Ev
.LVL162:
	leaq	__tcf_0(%rip), %rcx
.LBE1033:
.LBE1032:
	.loc 3 56 1 view .LVU510
	addq	$40, %rsp
	.cfi_def_cfa_offset 8
.LBB1035:
.LBB1034:
	.loc 2 74 25 view .LVU511
	jmp	atexit
.LVL163:
.LBE1034:
.LBE1035:
	.cfi_endproc
.LFE3402:
	.seh_endproc
	.section	.ctors,"w"
	.align 8
	.quad	_GLOBAL__sub_I__Z8IsSquarex
.lcomm _ZStL8__ioinit,1,1
	.text
.Letext0:
	.file 18 "C:/Program Files/CodeBlocks/MinGW/lib/gcc/x86_64-w64-mingw32/8.1.0/include/c++/cwchar"
	.file 19 "C:/Program Files/CodeBlocks/MinGW/lib/gcc/x86_64-w64-mingw32/8.1.0/include/c++/bits/exception_ptr.h"
	.file 20 "C:/Program Files/CodeBlocks/MinGW/lib/gcc/x86_64-w64-mingw32/8.1.0/include/c++/type_traits"
	.file 21 "C:/Program Files/CodeBlocks/MinGW/lib/gcc/x86_64-w64-mingw32/8.1.0/include/c++/x86_64-w64-mingw32/bits/c++config.h"
	.file 22 "C:/Program Files/CodeBlocks/MinGW/lib/gcc/x86_64-w64-mingw32/8.1.0/include/c++/bits/stl_pair.h"
	.file 23 "C:/Program Files/CodeBlocks/MinGW/lib/gcc/x86_64-w64-mingw32/8.1.0/include/c++/debug/debug.h"
	.file 24 "C:/Program Files/CodeBlocks/MinGW/lib/gcc/x86_64-w64-mingw32/8.1.0/include/c++/bits/char_traits.h"
	.file 25 "C:/Program Files/CodeBlocks/MinGW/lib/gcc/x86_64-w64-mingw32/8.1.0/include/c++/cstdint"
	.file 26 "C:/Program Files/CodeBlocks/MinGW/lib/gcc/x86_64-w64-mingw32/8.1.0/include/c++/clocale"
	.file 27 "C:/Program Files/CodeBlocks/MinGW/lib/gcc/x86_64-w64-mingw32/8.1.0/include/c++/limits"
	.file 28 "C:/Program Files/CodeBlocks/MinGW/lib/gcc/x86_64-w64-mingw32/8.1.0/include/c++/string_view"
	.file 29 "C:/Program Files/CodeBlocks/MinGW/lib/gcc/x86_64-w64-mingw32/8.1.0/include/c++/bits/basic_string.h"
	.file 30 "C:/Program Files/CodeBlocks/MinGW/lib/gcc/x86_64-w64-mingw32/8.1.0/include/c++/cstdlib"
	.file 31 "C:/Program Files/CodeBlocks/MinGW/lib/gcc/x86_64-w64-mingw32/8.1.0/include/c++/cstdio"
	.file 32 "C:/Program Files/CodeBlocks/MinGW/lib/gcc/x86_64-w64-mingw32/8.1.0/include/c++/system_error"
	.file 33 "C:/Program Files/CodeBlocks/MinGW/lib/gcc/x86_64-w64-mingw32/8.1.0/include/c++/bits/ios_base.h"
	.file 34 "C:/Program Files/CodeBlocks/MinGW/lib/gcc/x86_64-w64-mingw32/8.1.0/include/c++/cwctype"
	.file 35 "C:/Program Files/CodeBlocks/MinGW/lib/gcc/x86_64-w64-mingw32/8.1.0/include/c++/bits/ostream.tcc"
	.file 36 "C:/Program Files/CodeBlocks/MinGW/lib/gcc/x86_64-w64-mingw32/8.1.0/include/c++/istream"
	.file 37 "C:/Program Files/CodeBlocks/MinGW/lib/gcc/x86_64-w64-mingw32/8.1.0/include/c++/iosfwd"
	.file 38 "C:/Program Files/CodeBlocks/MinGW/lib/gcc/x86_64-w64-mingw32/8.1.0/include/c++/utility"
	.file 39 "C:/Program Files/CodeBlocks/MinGW/lib/gcc/x86_64-w64-mingw32/8.1.0/include/c++/initializer_list"
	.file 40 "C:/Program Files/CodeBlocks/MinGW/lib/gcc/x86_64-w64-mingw32/8.1.0/include/c++/bits/stl_iterator_base_types.h"
	.file 41 "C:/Program Files/CodeBlocks/MinGW/lib/gcc/x86_64-w64-mingw32/8.1.0/include/c++/bits/cpp_type_traits.h"
	.file 42 "C:/Program Files/CodeBlocks/MinGW/lib/gcc/x86_64-w64-mingw32/8.1.0/include/c++/bits/move.h"
	.file 43 "C:/Program Files/CodeBlocks/MinGW/lib/gcc/x86_64-w64-mingw32/8.1.0/include/c++/bits/ostream_insert.h"
	.file 44 "C:/Program Files/CodeBlocks/MinGW/lib/gcc/x86_64-w64-mingw32/8.1.0/include/c++/bits/functexcept.h"
	.file 45 "C:/Program Files/CodeBlocks/MinGW/lib/gcc/x86_64-w64-mingw32/8.1.0/include/c++/bits/predefined_ops.h"
	.file 46 "C:/Program Files/CodeBlocks/MinGW/lib/gcc/x86_64-w64-mingw32/8.1.0/include/c++/ext/numeric_traits.h"
	.file 47 "C:/Program Files/CodeBlocks/MinGW/lib/gcc/x86_64-w64-mingw32/8.1.0/include/c++/ext/type_traits.h"
	.file 48 "C:/Program Files/CodeBlocks/MinGW/lib/gcc/x86_64-w64-mingw32/8.1.0/include/c++/ext/alloc_traits.h"
	.file 49 "C:/Program Files/CodeBlocks/MinGW/x86_64-w64-mingw32/include/crtdefs.h"
	.file 50 "C:/Program Files/CodeBlocks/MinGW/x86_64-w64-mingw32/include/locale.h"
	.file 51 "C:/Program Files/CodeBlocks/MinGW/x86_64-w64-mingw32/include/wchar.h"
	.file 52 "C:/Program Files/CodeBlocks/MinGW/x86_64-w64-mingw32/include/swprintf.inl"
	.file 53 "C:/Program Files/CodeBlocks/MinGW/x86_64-w64-mingw32/include/stdint.h"
	.file 54 "C:/Program Files/CodeBlocks/MinGW/x86_64-w64-mingw32/include/stdio.h"
	.file 55 "C:/Program Files/CodeBlocks/MinGW/x86_64-w64-mingw32/include/ctype.h"
	.file 56 "C:/Program Files/CodeBlocks/MinGW/x86_64-w64-mingw32/include/process.h"
	.file 57 "C:/Program Files/CodeBlocks/MinGW/x86_64-w64-mingw32/include/pthread.h"
	.file 58 "C:/Program Files/CodeBlocks/MinGW/lib/gcc/x86_64-w64-mingw32/8.1.0/include/c++/x86_64-w64-mingw32/bits/atomic_word.h"
	.file 59 "C:/Program Files/CodeBlocks/MinGW/x86_64-w64-mingw32/include/stdlib.h"
	.file 60 "C:/Program Files/CodeBlocks/MinGW/x86_64-w64-mingw32/include/malloc.h"
	.file 61 "C:/Program Files/CodeBlocks/MinGW/x86_64-w64-mingw32/include/wctype.h"
	.file 62 "C:/Program Files/CodeBlocks/MinGW/x86_64-w64-mingw32/include/math.h"
	.file 63 "<built-in>"
	.section	.rdata$.refptr._ZSt4cout, "dr"
	.globl	.refptr._ZSt4cout
	.linkonce	discard
.refptr._ZSt4cout:
	.quad	_ZSt4cout
