	.file	"main.cpp"
	.text
.Ltext0:
	.cfi_sections	.debug_frame
	.section	.text$_ZNKSt5ctypeIcE8do_widenEc,"x"
	.linkonce discard
	.align 2
	.p2align 4,,15
	.globl	_ZNKSt5ctypeIcE8do_widenEc
	.def	_ZNKSt5ctypeIcE8do_widenEc;	.scl	2;	.type	32;	.endef
	.seh_proc	_ZNKSt5ctypeIcE8do_widenEc
_ZNKSt5ctypeIcE8do_widenEc:
.LVL0:
.LFB1658:
	.file 1 "C:/Program Files/CodeBlocks/MinGW/lib/gcc/x86_64-w64-mingw32/8.1.0/include/c++/bits/locale_facets.h"
	.loc 1 1082 7 view -0
	.cfi_startproc
	.loc 1 1082 7 is_stmt 0 view .LVU1
	.seh_endprologue
	.loc 1 1083 9 is_stmt 1 view .LVU2
	.loc 1 1083 21 is_stmt 0 view .LVU3
	movl	%edx, %eax
	ret
	.cfi_endproc
.LFE1658:
	.seh_endproc
	.text
	.p2align 4,,15
	.def	__tcf_0;	.scl	3;	.type	32;	.endef
	.seh_proc	__tcf_0
__tcf_0:
.LFB3087:
	.file 2 "C:/Program Files/CodeBlocks/MinGW/lib/gcc/x86_64-w64-mingw32/8.1.0/include/c++/iostream"
	.loc 2 74 25 is_stmt 1 view -0
	.cfi_startproc
	.seh_endprologue
	.loc 2 74 25 is_stmt 0 view .LVU5
	leaq	_ZStL8__ioinit(%rip), %rcx
	jmp	_ZNSt8ios_base4InitD1Ev
.LVL1:
	.cfi_endproc
.LFE3087:
	.seh_endproc
	.section	.text$_ZNSt8_Rb_treeIxxSt9_IdentityIxESt4lessIxESaIxEE8_M_eraseEPSt13_Rb_tree_nodeIxE,"x"
	.linkonce discard
	.align 2
	.p2align 4,,15
	.globl	_ZNSt8_Rb_treeIxxSt9_IdentityIxESt4lessIxESaIxEE8_M_eraseEPSt13_Rb_tree_nodeIxE
	.def	_ZNSt8_Rb_treeIxxSt9_IdentityIxESt4lessIxESaIxEE8_M_eraseEPSt13_Rb_tree_nodeIxE;	.scl	2;	.type	32;	.endef
	.seh_proc	_ZNSt8_Rb_treeIxxSt9_IdentityIxESt4lessIxESaIxEE8_M_eraseEPSt13_Rb_tree_nodeIxE
_ZNSt8_Rb_treeIxxSt9_IdentityIxESt4lessIxESaIxEE8_M_eraseEPSt13_Rb_tree_nodeIxE:
.LVL2:
.LFB2805:
	.file 3 "C:/Program Files/CodeBlocks/MinGW/lib/gcc/x86_64-w64-mingw32/8.1.0/include/c++/bits/stl_tree.h"
	.loc 3 1866 5 is_stmt 1 view -0
	.cfi_startproc
	.loc 3 1866 5 is_stmt 0 view .LVU7
	pushq	%rdi
	.seh_pushreg	%rdi
	.cfi_def_cfa_offset 16
	.cfi_offset 5, -16
	pushq	%rsi
	.seh_pushreg	%rsi
	.cfi_def_cfa_offset 24
	.cfi_offset 4, -24
	pushq	%rbx
	.seh_pushreg	%rbx
	.cfi_def_cfa_offset 32
	.cfi_offset 3, -32
	subq	$32, %rsp
	.seh_stackalloc	32
	.cfi_def_cfa_offset 64
	.seh_endprologue
	.loc 3 1870 18 view .LVU8
	testq	%rdx, %rdx
	.loc 3 1866 5 view .LVU9
	movq	%rcx, %rdi
	movq	%rdx, %rbx
	.loc 3 1870 18 view .LVU10
	je	.L4
.LVL3:
.L6:
.LBB731:
	.loc 3 1872 4 view .LVU11
	movq	24(%rbx), %rdx
	movq	%rdi, %rcx
	call	_ZNSt8_Rb_treeIxxSt9_IdentityIxESt4lessIxESaIxEE8_M_eraseEPSt13_Rb_tree_nodeIxE
.LVL4:
	.loc 3 1873 28 view .LVU12
	movq	16(%rbx), %rsi
.LVL5:
.LBB732:
.LBI732:
	.loc 3 667 7 is_stmt 1 view .LVU13
.LBB733:
.LBI733:
	.loc 3 602 7 view .LVU14
.LBB734:
.LBI734:
	.file 4 "C:/Program Files/CodeBlocks/MinGW/lib/gcc/x86_64-w64-mingw32/8.1.0/include/c++/bits/alloc_traits.h"
	.loc 4 461 7 view .LVU15
.LBB735:
.LBI735:
	.file 5 "C:/Program Files/CodeBlocks/MinGW/lib/gcc/x86_64-w64-mingw32/8.1.0/include/c++/ext/new_allocator.h"
	.loc 5 116 7 view .LVU16
.LBB736:
	.loc 5 125 19 is_stmt 0 view .LVU17
	movq	%rbx, %rcx
	call	_ZdlPv
.LVL6:
	.loc 5 125 19 view .LVU18
.LBE736:
.LBE735:
.LBE734:
.LBE733:
.LBE732:
.LBE731:
	.loc 3 1870 18 view .LVU19
	testq	%rsi, %rsi
	movq	%rsi, %rbx
.LVL7:
	.loc 3 1870 18 view .LVU20
	jne	.L6
.LVL8:
.L4:
	.loc 3 1877 5 view .LVU21
	addq	$32, %rsp
	.cfi_def_cfa_offset 32
	popq	%rbx
	.cfi_restore 3
	.cfi_def_cfa_offset 24
.LVL9:
	.loc 3 1877 5 view .LVU22
	popq	%rsi
	.cfi_restore 4
	.cfi_def_cfa_offset 16
	popq	%rdi
	.cfi_restore 5
	.cfi_def_cfa_offset 8
.LVL10:
	.loc 3 1877 5 view .LVU23
	ret
	.cfi_endproc
.LFE2805:
	.seh_endproc
	.section	.text$_ZNSt8_Rb_treeIxxSt9_IdentityIxESt4lessIxESaIxEE5eraseERKx,"x"
	.linkonce discard
	.align 2
	.p2align 4,,15
	.globl	_ZNSt8_Rb_treeIxxSt9_IdentityIxESt4lessIxESaIxEE5eraseERKx
	.def	_ZNSt8_Rb_treeIxxSt9_IdentityIxESt4lessIxESaIxEE5eraseERKx;	.scl	2;	.type	32;	.endef
	.seh_proc	_ZNSt8_Rb_treeIxxSt9_IdentityIxESt4lessIxESaIxEE5eraseERKx
_ZNSt8_Rb_treeIxxSt9_IdentityIxESt4lessIxESaIxEE5eraseERKx:
.LVL11:
.LFB2816:
	.loc 3 2513 5 is_stmt 1 view -0
	.cfi_startproc
	.loc 3 2513 5 is_stmt 0 view .LVU25
	pushq	%r13
	.seh_pushreg	%r13
	.cfi_def_cfa_offset 16
	.cfi_offset 13, -16
	pushq	%r12
	.seh_pushreg	%r12
	.cfi_def_cfa_offset 24
	.cfi_offset 12, -24
	pushq	%rbp
	.seh_pushreg	%rbp
	.cfi_def_cfa_offset 32
	.cfi_offset 6, -32
	pushq	%rdi
	.seh_pushreg	%rdi
	.cfi_def_cfa_offset 40
	.cfi_offset 5, -40
	pushq	%rsi
	.seh_pushreg	%rsi
	.cfi_def_cfa_offset 48
	.cfi_offset 4, -48
	pushq	%rbx
	.seh_pushreg	%rbx
	.cfi_def_cfa_offset 56
	.cfi_offset 3, -56
	subq	$40, %rsp
	.seh_stackalloc	40
	.cfi_def_cfa_offset 96
	.seh_endprologue
.LBB820:
.LBB821:
	.loc 3 1952 18 view .LVU26
	movq	16(%rcx), %r13
.LBB822:
.LBB823:
	.loc 3 764 31 view .LVU27
	leaq	8(%rcx), %r12
.LBE823:
.LBE822:
	.loc 3 1954 18 view .LVU28
	testq	%r13, %r13
.LBE821:
.LBE820:
	.loc 3 2513 5 view .LVU29
	movq	%rcx, %rsi
.LVL12:
.LBB863:
.LBI820:
	.loc 3 1949 5 is_stmt 1 view .LVU30
.LBB859:
.LBB825:
.LBI822:
	.loc 3 763 7 view .LVU31
	.loc 3 763 7 is_stmt 0 view .LVU32
.LBE825:
	.loc 3 1954 18 view .LVU33
	je	.L12
.LBB826:
	.loc 3 1956 4 view .LVU34
	movq	(%rdx), %rcx
.LVL13:
	.loc 3 1956 4 view .LVU35
.LBE826:
.LBB843:
.LBB824:
	.loc 3 764 31 view .LVU36
	movq	%r12, %rdi
.LBE824:
.LBE843:
.LBB844:
	.loc 3 1956 4 view .LVU37
	movq	%r13, %rbx
	jmp	.L13
.LVL14:
	.p2align 4,,10
.L58:
	.loc 3 1957 20 view .LVU38
	movq	24(%rbx), %rax
.LVL15:
	.loc 3 1957 20 view .LVU39
.LBE844:
	.loc 3 1954 18 view .LVU40
	testq	%rax, %rax
	je	.L57
.LVL16:
.L31:
	.loc 3 1954 18 view .LVU41
	movq	%rax, %rbx
.LVL17:
.L13:
.LBB845:
	.loc 3 1956 4 view .LVU42
	cmpq	%rcx, 32(%rbx)
	jl	.L58
.LVL18:
	.loc 3 1956 4 view .LVU43
	movq	16(%rbx), %rax
.LBB827:
	.loc 3 1958 9 view .LVU44
	jle	.L59
.LBE827:
.LBE845:
	.loc 3 1954 18 view .LVU45
	testq	%rax, %rax
.LBB846:
.LBB840:
	.loc 3 1958 9 view .LVU46
	movq	%rbx, %rdi
.LVL19:
	.loc 3 1958 9 view .LVU47
.LBE840:
.LBE846:
	.loc 3 1954 18 view .LVU48
	jne	.L31
.LVL20:
.L57:
.LBB847:
.LBI847:
	.loc 3 273 7 is_stmt 1 view .LVU49
	.loc 3 273 7 is_stmt 0 view .LVU50
.LBE847:
.LBB848:
.LBI848:
	.loc 3 273 7 is_stmt 1 view .LVU51
	.loc 3 273 7 is_stmt 0 view .LVU52
.LBE848:
.LBB849:
.LBI849:
	.file 6 "C:/Program Files/CodeBlocks/MinGW/lib/gcc/x86_64-w64-mingw32/8.1.0/include/c++/bits/stl_pair.h"
	.loc 6 330 12 is_stmt 1 view .LVU53
.LBB850:
.LBI850:
	.file 7 "C:/Program Files/CodeBlocks/MinGW/lib/gcc/x86_64-w64-mingw32/8.1.0/include/c++/bits/move.h"
	.loc 7 74 5 view .LVU54
	.loc 7 74 5 is_stmt 0 view .LVU55
.LBE850:
.LBB851:
.LBI851:
	.loc 7 74 5 is_stmt 1 view .LVU56
	.loc 7 74 5 is_stmt 0 view .LVU57
.LBE851:
.LBE849:
.LBE859:
.LBE863:
.LBB864:
.LBB865:
	.loc 3 2503 30 view .LVU58
	cmpq	%rdi, 24(%rsi)
.LBE865:
.LBE864:
	.loc 3 2517 23 view .LVU59
	movq	40(%rsi), %rbp
.LVL21:
.LBB917:
.LBI917:
	.loc 3 348 7 is_stmt 1 view .LVU60
	.loc 3 348 7 is_stmt 0 view .LVU61
.LBE917:
.LBB918:
.LBI918:
	.loc 3 348 7 is_stmt 1 view .LVU62
	.loc 3 348 7 is_stmt 0 view .LVU63
.LBE918:
.LBB919:
.LBI864:
	.loc 3 2500 5 is_stmt 1 view .LVU64
.LBB911:
.LBB866:
.LBI866:
	.loc 3 976 7 view .LVU65
.LBB867:
.LBI867:
	.loc 3 273 7 view .LVU66
	.loc 3 273 7 is_stmt 0 view .LVU67
.LBE867:
.LBE866:
.LBB870:
.LBI870:
	.loc 3 348 7 is_stmt 1 view .LVU68
	.loc 3 348 7 is_stmt 0 view .LVU69
.LBE870:
.LBB871:
.LBI871:
	.loc 3 984 7 is_stmt 1 view .LVU70
.LBB872:
.LBI872:
	.loc 3 273 7 view .LVU71
	.loc 3 273 7 is_stmt 0 view .LVU72
.LBE872:
.LBE871:
.LBB875:
.LBI875:
	.loc 3 348 7 is_stmt 1 view .LVU73
	.loc 3 348 7 is_stmt 0 view .LVU74
.LBE875:
	.loc 3 2503 30 view .LVU75
	jne	.L56
	.loc 3 2503 30 view .LVU76
	cmpq	%rdi, %r12
	je	.L28
.LVL22:
.L56:
	.loc 3 2503 30 view .LVU77
	xorl	%ebp, %ebp
.LVL23:
.L11:
	.loc 3 2503 30 view .LVU78
.LBE911:
.LBE919:
	.loc 3 2520 5 view .LVU79
	movq	%rbp, %rax
	addq	$40, %rsp
	.cfi_remember_state
	.cfi_def_cfa_offset 56
	popq	%rbx
	.cfi_restore 3
	.cfi_def_cfa_offset 48
	popq	%rsi
	.cfi_restore 4
	.cfi_def_cfa_offset 40
.LVL24:
	.loc 3 2520 5 view .LVU80
	popq	%rdi
	.cfi_restore 5
	.cfi_def_cfa_offset 32
	popq	%rbp
	.cfi_restore 6
	.cfi_def_cfa_offset 24
	popq	%r12
	.cfi_restore 12
	.cfi_def_cfa_offset 16
.LVL25:
	.loc 3 2520 5 view .LVU81
	popq	%r13
	.cfi_restore 13
	.cfi_def_cfa_offset 8
	ret
.LVL26:
	.p2align 4,,10
.L59:
	.cfi_restore_state
.LBB920:
.LBB860:
.LBB854:
.LBB841:
.LBB828:
	.loc 3 1965 23 view .LVU82
	movq	24(%rbx), %rdx
.LVL27:
.LBB829:
.LBI829:
	.loc 3 1915 5 is_stmt 1 view .LVU83
.LBB830:
	.loc 3 1919 18 is_stmt 0 view .LVU84
	testq	%rdx, %rdx
	jne	.L20
	jmp	.L26
.LVL28:
	.p2align 4,,10
.L60:
	.loc 3 1921 28 view .LVU85
	movq	%rdx, %rdi
	movq	16(%rdx), %rdx
.LVL29:
	.loc 3 1919 18 view .LVU86
	testq	%rdx, %rdx
	je	.L26
.LVL30:
.L20:
	.loc 3 1920 2 view .LVU87
	cmpq	32(%rdx), %rcx
	jl	.L60
	.loc 3 1923 18 view .LVU88
	movq	24(%rdx), %rdx
.LVL31:
	.loc 3 1919 18 view .LVU89
	testq	%rdx, %rdx
	jne	.L20
.LVL32:
	.p2align 4,,10
.L26:
	.loc 3 1919 18 view .LVU90
.LBE830:
.LBE829:
.LBB831:
.LBB832:
	.loc 3 1887 18 view .LVU91
	testq	%rax, %rax
	je	.L21
.L61:
.LVL33:
	.loc 3 1888 2 view .LVU92
	cmpq	32(%rax), %rcx
	jg	.L25
.LVL34:
	.loc 3 1889 28 view .LVU93
	movq	%rax, %rbx
	movq	16(%rax), %rax
.LVL35:
	.loc 3 1887 18 view .LVU94
	testq	%rax, %rax
	jne	.L61
.LVL36:
.L21:
.LBB833:
.LBI833:
	.loc 3 273 7 is_stmt 1 view .LVU95
	.loc 3 273 7 is_stmt 0 view .LVU96
.LBE833:
.LBE832:
.LBE831:
.LBB835:
.LBI835:
	.loc 6 330 12 is_stmt 1 view .LVU97
.LBB836:
.LBI836:
	.loc 7 74 5 view .LVU98
	.loc 7 74 5 is_stmt 0 view .LVU99
.LBE836:
.LBB837:
.LBI837:
	.loc 7 74 5 is_stmt 1 view .LVU100
	.loc 7 74 5 is_stmt 0 view .LVU101
.LBE837:
.LBE835:
.LBE828:
.LBE841:
.LBE854:
.LBE860:
.LBE920:
.LBB921:
.LBB912:
	.loc 3 2503 30 view .LVU102
	cmpq	%rbx, 24(%rsi)
.LBE912:
.LBE921:
	.loc 3 2517 23 view .LVU103
	movq	40(%rsi), %rbp
.LVL37:
.LBB922:
	.loc 3 348 7 is_stmt 1 view .LVU104
	.loc 3 348 7 is_stmt 0 view .LVU105
.LBE922:
.LBB923:
	.loc 3 348 7 is_stmt 1 view .LVU106
	.loc 3 348 7 is_stmt 0 view .LVU107
.LBE923:
.LBB924:
	.loc 3 2500 5 is_stmt 1 view .LVU108
.LBB913:
.LBB876:
	.loc 3 976 7 view .LVU109
.LBB868:
	.loc 3 273 7 view .LVU110
	.loc 3 273 7 is_stmt 0 view .LVU111
.LBE868:
.LBE876:
.LBB877:
	.loc 3 348 7 is_stmt 1 view .LVU112
	.loc 3 348 7 is_stmt 0 view .LVU113
.LBE877:
.LBB878:
	.loc 3 984 7 is_stmt 1 view .LVU114
.LBB873:
	.loc 3 273 7 view .LVU115
	.loc 3 273 7 is_stmt 0 view .LVU116
.LBE873:
.LBE878:
.LBB879:
	.loc 3 348 7 is_stmt 1 view .LVU117
	.loc 3 348 7 is_stmt 0 view .LVU118
.LBE879:
	.loc 3 2503 30 view .LVU119
	je	.L62
.L27:
.LVL38:
	.loc 3 2506 17 view .LVU120
	cmpq	%rbx, %rdi
	je	.L56
.LVL39:
	.p2align 4,,10
.L29:
.LBB880:
.LBI880:
	.loc 3 371 7 is_stmt 1 view .LVU121
.LBB881:
	.loc 3 374 30 is_stmt 0 view .LVU122
	movq	%rbx, %rcx
	call	_ZSt18_Rb_tree_incrementPKSt18_Rb_tree_node_base
.LVL40:
.LBE881:
.LBE880:
.LBB883:
.LBB884:
	.loc 3 2491 5 view .LVU123
	movq	%rbx, %rcx
	movq	%r12, %rdx
.LBE884:
.LBE883:
.LBB892:
.LBB882:
	.loc 3 374 30 view .LVU124
	movq	%rax, %r13
.LVL41:
	.loc 3 374 30 view .LVU125
.LBE882:
.LBE892:
.LBB893:
.LBI883:
	.loc 3 2486 5 is_stmt 1 view .LVU126
.LBB890:
	.loc 3 2491 5 is_stmt 0 view .LVU127
	call	_ZSt28_Rb_tree_rebalance_for_erasePSt18_Rb_tree_node_baseRS_
.LVL42:
.LBB885:
.LBI885:
	.loc 3 667 7 is_stmt 1 view .LVU128
.LBB886:
.LBI886:
	.loc 3 602 7 view .LVU129
.LBB887:
.LBI887:
	.loc 4 461 7 view .LVU130
.LBB888:
.LBI888:
	.loc 5 116 7 view .LVU131
	.loc 5 116 7 is_stmt 0 view .LVU132
	movq	%r13, %rbx
.LVL43:
.LBB889:
	.loc 5 125 19 view .LVU133
	movq	%rax, %rcx
	call	_ZdlPv
.LVL44:
	.loc 5 125 19 view .LVU134
.LBE889:
.LBE888:
.LBE887:
.LBE886:
.LBE885:
	.loc 3 2494 7 view .LVU135
	movq	40(%rsi), %rax
	subq	$1, %rax
.LBE890:
.LBE893:
	.loc 3 2506 17 view .LVU136
	cmpq	%rdi, %r13
.LBB894:
.LBB891:
	.loc 3 2494 7 view .LVU137
	movq	%rax, 40(%rsi)
.LVL45:
	.loc 3 2494 7 view .LVU138
.LBE891:
.LBE894:
	.loc 3 2506 17 view .LVU139
	jne	.L29
	subq	%rax, %rbp
.LVL46:
	.loc 3 2506 17 view .LVU140
.LBE913:
.LBE924:
	.loc 3 2520 5 view .LVU141
	movq	%rbp, %rax
	addq	$40, %rsp
	.cfi_remember_state
	.cfi_def_cfa_offset 56
	popq	%rbx
	.cfi_restore 3
	.cfi_def_cfa_offset 48
	popq	%rsi
	.cfi_restore 4
	.cfi_def_cfa_offset 40
.LVL47:
	.loc 3 2520 5 view .LVU142
	popq	%rdi
	.cfi_restore 5
	.cfi_def_cfa_offset 32
.LVL48:
	.loc 3 2520 5 view .LVU143
	popq	%rbp
	.cfi_restore 6
	.cfi_def_cfa_offset 24
	popq	%r12
	.cfi_restore 12
	.cfi_def_cfa_offset 16
.LVL49:
	.loc 3 2520 5 view .LVU144
	popq	%r13
	.cfi_restore 13
	.cfi_def_cfa_offset 8
.LVL50:
	.loc 3 2520 5 view .LVU145
	ret
.LVL51:
	.p2align 4,,10
.L25:
	.cfi_restore_state
.LBB925:
.LBB861:
.LBB855:
.LBB842:
.LBB839:
.LBB838:
.LBB834:
	.loc 3 1891 18 view .LVU146
	movq	24(%rax), %rax
.LVL52:
	.loc 3 1891 18 view .LVU147
	jmp	.L26
.LVL53:
	.p2align 4,,10
.L62:
	.loc 3 1891 18 view .LVU148
.LBE834:
.LBE838:
.LBE839:
.LBE842:
.LBE855:
.LBE861:
.LBE925:
.LBB926:
.LBB914:
	.loc 3 2503 30 view .LVU149
	cmpq	%rdi, %r12
	jne	.L27
.LVL54:
	.p2align 4,,10
.L28:
.LBB895:
.LBB896:
.LBB897:
.LBB898:
.LBB899:
	.loc 3 1872 4 view .LVU150
	movq	24(%r13), %rdx
	movq	%rsi, %rcx
	call	_ZNSt8_Rb_treeIxxSt9_IdentityIxESt4lessIxESaIxEE8_M_eraseEPSt13_Rb_tree_nodeIxE
.LVL55:
	.loc 3 1873 28 view .LVU151
	movq	16(%r13), %rbx
.LVL56:
.LBB900:
.LBI900:
	.loc 3 667 7 is_stmt 1 view .LVU152
.LBB901:
.LBI901:
	.loc 3 602 7 view .LVU153
.LBB902:
.LBI902:
	.loc 4 461 7 view .LVU154
.LBB903:
.LBI903:
	.loc 5 116 7 view .LVU155
.LBB904:
	.loc 5 125 19 is_stmt 0 view .LVU156
	movq	%r13, %rcx
	call	_ZdlPv
.LVL57:
	.loc 5 125 19 view .LVU157
.LBE904:
.LBE903:
.LBE902:
.LBE901:
.LBE900:
.LBE899:
	.loc 3 1870 18 view .LVU158
	testq	%rbx, %rbx
	movq	%rbx, %r13
.LVL58:
	.loc 3 1870 18 view .LVU159
	jne	.L28
.LVL59:
.L30:
	.loc 3 1870 18 view .LVU160
.LBE898:
.LBE897:
.LBB905:
.LBI905:
	.loc 3 206 5 is_stmt 1 view .LVU161
.LBB906:
	.loc 3 208 7 view .LVU162
	.loc 3 208 27 is_stmt 0 view .LVU163
	movq	$0, 16(%rsi)
	.loc 3 209 7 is_stmt 1 view .LVU164
	.loc 3 209 25 is_stmt 0 view .LVU165
	movq	%r12, 24(%rsi)
	.loc 3 210 7 is_stmt 1 view .LVU166
	.loc 3 210 26 is_stmt 0 view .LVU167
	movq	%r12, 32(%rsi)
	.loc 3 211 7 is_stmt 1 view .LVU168
	.loc 3 211 21 is_stmt 0 view .LVU169
	movq	$0, 40(%rsi)
.LVL60:
	.loc 3 211 21 view .LVU170
	jmp	.L11
.LVL61:
	.p2align 4,,10
.L12:
	.loc 3 211 21 view .LVU171
.LBE906:
.LBE905:
.LBE896:
.LBE895:
.LBE914:
.LBE926:
.LBB927:
.LBB862:
.LBB856:
	.loc 3 273 7 is_stmt 1 view .LVU172
	.loc 3 273 7 is_stmt 0 view .LVU173
.LBE856:
.LBB857:
	.loc 3 273 7 is_stmt 1 view .LVU174
	.loc 3 273 7 is_stmt 0 view .LVU175
.LBE857:
.LBB858:
	.loc 6 330 12 is_stmt 1 view .LVU176
.LBB852:
	.loc 7 74 5 view .LVU177
	.loc 7 74 5 is_stmt 0 view .LVU178
.LBE852:
.LBB853:
	.loc 7 74 5 is_stmt 1 view .LVU179
	.loc 7 74 5 is_stmt 0 view .LVU180
.LBE853:
.LBE858:
.LBE862:
.LBE927:
.LBB928:
.LBB915:
	.loc 3 2503 30 view .LVU181
	cmpq	24(%rcx), %r12
.LBE915:
.LBE928:
	.loc 3 2517 23 view .LVU182
	movq	40(%rcx), %rbp
.LVL62:
.LBB929:
	.loc 3 348 7 is_stmt 1 view .LVU183
	.loc 3 348 7 is_stmt 0 view .LVU184
.LBE929:
.LBB930:
	.loc 3 348 7 is_stmt 1 view .LVU185
	.loc 3 348 7 is_stmt 0 view .LVU186
.LBE930:
.LBB931:
	.loc 3 2500 5 is_stmt 1 view .LVU187
.LBB916:
.LBB907:
	.loc 3 976 7 view .LVU188
.LBB869:
	.loc 3 273 7 view .LVU189
	.loc 3 273 7 is_stmt 0 view .LVU190
.LBE869:
.LBE907:
.LBB908:
	.loc 3 348 7 is_stmt 1 view .LVU191
	.loc 3 348 7 is_stmt 0 view .LVU192
.LBE908:
.LBB909:
	.loc 3 984 7 is_stmt 1 view .LVU193
.LBB874:
	.loc 3 273 7 view .LVU194
	.loc 3 273 7 is_stmt 0 view .LVU195
.LBE874:
.LBE909:
.LBB910:
	.loc 3 348 7 is_stmt 1 view .LVU196
	.loc 3 348 7 is_stmt 0 view .LVU197
.LBE910:
	.loc 3 2503 30 view .LVU198
	jne	.L56
	jmp	.L30
.LBE916:
.LBE931:
	.cfi_endproc
.LFE2816:
	.seh_endproc
	.def	__main;	.scl	2;	.type	32;	.endef
	.section .rdata,"dr"
.LC0:
	.ascii "a : \0"
.LC1:
	.ascii "Hello world!\0"
.LC2:
	.ascii " \0"
	.section	.text.startup,"x"
	.p2align 4,,15
	.globl	main
	.def	main;	.scl	2;	.type	32;	.endef
	.seh_proc	main
main:
.LFB2454:
	.file 8 "C:/Users/Saha2/Desktop/Code-Samples/C++/temporary_stuff/summ_of_good_subsegm/main.cpp"
	.loc 8 9 1 is_stmt 1 view -0
	.cfi_startproc
	pushq	%r15
	.seh_pushreg	%r15
	.cfi_def_cfa_offset 16
	.cfi_offset 15, -16
	pushq	%r14
	.seh_pushreg	%r14
	.cfi_def_cfa_offset 24
	.cfi_offset 14, -24
	pushq	%r13
	.seh_pushreg	%r13
	.cfi_def_cfa_offset 32
	.cfi_offset 13, -32
	pushq	%r12
	.seh_pushreg	%r12
	.cfi_def_cfa_offset 40
	.cfi_offset 12, -40
	pushq	%rbp
	.seh_pushreg	%rbp
	.cfi_def_cfa_offset 48
	.cfi_offset 6, -48
	pushq	%rdi
	.seh_pushreg	%rdi
	.cfi_def_cfa_offset 56
	.cfi_offset 5, -56
	pushq	%rsi
	.seh_pushreg	%rsi
	.cfi_def_cfa_offset 64
	.cfi_offset 4, -64
	pushq	%rbx
	.seh_pushreg	%rbx
	.cfi_def_cfa_offset 72
	.cfi_offset 3, -72
	subq	$104, %rsp
	.seh_stackalloc	104
	.cfi_def_cfa_offset 176
	.seh_endprologue
	.loc 8 9 1 is_stmt 0 view .LVU200
	call	__main
.LVL63:
	.loc 8 10 5 is_stmt 1 view .LVU201
	.loc 8 11 5 view .LVU202
.LBB1077:
.LBI1077:
	.file 9 "C:/Program Files/CodeBlocks/MinGW/lib/gcc/x86_64-w64-mingw32/8.1.0/include/c++/istream"
	.loc 9 195 7 view .LVU203
.LBB1078:
	.loc 9 196 30 is_stmt 0 view .LVU204
	movq	.refptr._ZSt3cin(%rip), %rcx
	leaq	32(%rsp), %rdx
.LVL64:
	.loc 9 196 30 view .LVU205
.LBE1078:
.LBE1077:
.LBB1080:
.LBB1081:
.LBB1082:
.LBB1083:
.LBB1084:
.LBB1085:
.LBB1086:
.LBB1087:
.LBB1088:
	.loc 3 209 25 view .LVU206
	leaq	48(%rsp), %rbp
	leaq	8(%rbp), %r13
.LEHB0:
.LBE1088:
.LBE1087:
.LBE1086:
.LBE1085:
.LBE1084:
.LBE1083:
.LBE1082:
.LBE1081:
.LBE1080:
.LBB1108:
.LBB1079:
	.loc 9 196 30 view .LVU207
	call	_ZNSi10_M_extractIxEERSiRT_
.LVL65:
.LEHE0:
	.loc 9 196 30 view .LVU208
.LBE1079:
.LBE1108:
	.loc 8 14 5 is_stmt 1 view .LVU209
.LBB1109:
.LBI1080:
	.file 10 "C:/Program Files/CodeBlocks/MinGW/lib/gcc/x86_64-w64-mingw32/8.1.0/include/c++/bits/stl_multiset.h"
	.loc 10 164 7 view .LVU210
.LBB1106:
.LBI1081:
	.loc 3 929 7 view .LVU211
.LBB1104:
.LBI1082:
	.loc 3 699 4 view .LVU212
.LBB1102:
.LBB1097:
.LBI1097:
	.file 11 "C:/Program Files/CodeBlocks/MinGW/lib/gcc/x86_64-w64-mingw32/8.1.0/include/c++/bits/allocator.h"
	.loc 11 131 7 view .LVU213
.LBB1098:
.LBI1098:
	.loc 5 79 7 view .LVU214
	.loc 5 79 7 is_stmt 0 view .LVU215
.LBE1098:
.LBE1097:
.LBB1099:
.LBI1099:
	.loc 3 146 7 is_stmt 1 view .LVU216
	.loc 3 146 7 is_stmt 0 view .LVU217
.LBE1099:
.LBB1100:
.LBI1084:
	.loc 3 173 5 is_stmt 1 view .LVU218
.LBB1095:
.LBB1093:
	.loc 3 175 7 view .LVU219
.LBE1093:
.LBE1095:
.LBE1100:
.LBE1102:
.LBE1104:
.LBE1106:
.LBE1109:
.LBB1110:
	.loc 8 16 26 is_stmt 0 view .LVU220
	cmpq	$0, 32(%rsp)
.LBE1110:
.LBB1195:
.LBB1107:
.LBB1105:
.LBB1103:
.LBB1101:
.LBB1096:
.LBB1094:
.LBB1091:
.LBB1089:
	.loc 3 209 25 view .LVU221
	movq	%r13, 72(%rsp)
.LBE1089:
.LBE1091:
	.loc 3 175 26 view .LVU222
	movl	$0, 56(%rsp)
	.loc 3 176 7 is_stmt 1 view .LVU223
.LVL66:
.LBB1092:
.LBI1087:
	.loc 3 206 5 view .LVU224
.LBB1090:
	.loc 3 208 7 view .LVU225
	.loc 3 208 27 is_stmt 0 view .LVU226
	movq	$0, 64(%rsp)
	.loc 3 209 7 is_stmt 1 view .LVU227
	.loc 3 210 7 view .LVU228
	.loc 3 210 26 is_stmt 0 view .LVU229
	movq	%r13, 80(%rsp)
	.loc 3 211 7 is_stmt 1 view .LVU230
	.loc 3 211 21 is_stmt 0 view .LVU231
	movq	$0, 88(%rsp)
.LVL67:
	.loc 3 211 21 view .LVU232
.LBE1090:
.LBE1092:
.LBE1094:
.LBE1096:
.LBE1101:
.LBE1103:
.LBE1105:
.LBE1107:
.LBE1195:
	.loc 8 15 5 is_stmt 1 view .LVU233
	.loc 8 15 15 is_stmt 0 view .LVU234
	movq	$0, 40(%rsp)
	.loc 8 16 5 is_stmt 1 view .LVU235
.LVL68:
.LBB1196:
	.loc 8 16 26 is_stmt 0 view .LVU236
	jle	.L71
.LBB1111:
.LBB1112:
	.loc 9 196 30 view .LVU237
	movq	.refptr._ZSt3cin(%rip), %r14
	leaq	arr(%rip), %r12
.LBE1112:
.LBE1111:
	.loc 8 16 19 view .LVU238
	xorl	%edi, %edi
	movq	%r12, %rsi
.LVL69:
	.p2align 4,,10
.L70:
	.loc 8 17 9 is_stmt 1 view .LVU239
.LBB1114:
.LBI1111:
	.loc 9 195 7 view .LVU240
.LBB1113:
	.loc 9 196 30 is_stmt 0 view .LVU241
	movq	%rsi, %rdx
	movq	%r14, %rcx
.LEHB1:
	call	_ZNSi10_M_extractIxEERSiRT_
.LVL70:
	.loc 9 196 30 view .LVU242
.LBE1113:
.LBE1114:
	.loc 8 18 9 is_stmt 1 view .LVU243
.LBB1115:
.LBB1116:
.LBB1117:
.LBB1118:
.LBB1119:
	.loc 3 2080 18 is_stmt 0 view .LVU244
	movq	64(%rsp), %rbx
.LBE1119:
.LBE1118:
.LBE1117:
.LBE1116:
.LBE1115:
	.loc 8 18 14 view .LVU245
	movq	40(%rsp), %rcx
	addq	(%rsi), %rcx
.LBB1188:
.LBB1180:
.LBB1173:
.LBB1127:
.LBB1124:
	.loc 3 2082 18 view .LVU246
	testq	%rbx, %rbx
.LBE1124:
.LBE1127:
.LBE1173:
.LBE1180:
.LBE1188:
	.loc 8 18 14 view .LVU247
	movq	%rcx, 40(%rsp)
	.loc 8 19 9 is_stmt 1 view .LVU248
.LVL71:
.LBB1189:
.LBI1115:
	.loc 10 502 7 view .LVU249
.LBB1181:
.LBI1116:
	.loc 3 2126 5 view .LVU250
.LBB1174:
.LBB1128:
.LBI1118:
	.loc 3 2076 5 view .LVU251
.LBB1125:
.LBB1120:
.LBI1120:
	.loc 3 763 7 view .LVU252
	.loc 3 763 7 is_stmt 0 view .LVU253
.LBE1120:
	.loc 3 2082 18 view .LVU254
	jne	.L66
	jmp	.L102
.LVL72:
	.p2align 4,,10
.L103:
	.loc 3 2086 10 view .LVU255
	movq	16(%rbx), %rax
.LVL73:
	.loc 3 2082 18 view .LVU256
	testq	%rax, %rax
	je	.L67
.LVL74:
.L104:
	.loc 3 2082 18 view .LVU257
	movq	%rax, %rbx
.LVL75:
.L66:
	.loc 3 2085 51 view .LVU258
	movq	32(%rbx), %rdx
.LVL76:
	.loc 3 2085 51 view .LVU259
	cmpq	%rdx, %rcx
	jl	.L103
	.loc 3 2086 26 view .LVU260
	movq	24(%rbx), %rax
.LVL77:
	.loc 3 2082 18 view .LVU261
	testq	%rax, %rax
	jne	.L104
.LVL78:
.L67:
.LBB1121:
.LBI1121:
	.loc 6 330 12 is_stmt 1 view .LVU262
.LBB1122:
.LBI1122:
	.loc 7 74 5 view .LVU263
	.loc 7 74 5 is_stmt 0 view .LVU264
.LBE1122:
.LBB1123:
.LBI1123:
	.loc 7 74 5 is_stmt 1 view .LVU265
	.loc 7 74 5 is_stmt 0 view .LVU266
.LBE1123:
.LBE1121:
.LBE1125:
.LBE1128:
.LBB1129:
.LBI1129:
	.loc 3 557 2 is_stmt 1 view .LVU267
	.loc 3 557 2 is_stmt 0 view .LVU268
.LBE1129:
.LBB1130:
.LBI1130:
	.loc 3 1756 7 is_stmt 1 view .LVU269
.LBB1131:
.LBB1132:
.LBI1132:
	.loc 3 763 7 view .LVU270
	.loc 3 763 7 is_stmt 0 view .LVU271
.LBE1132:
	.loc 3 1765 33 view .LVU272
	cmpq	%r13, %rbx
	.loc 3 1766 10 view .LVU273
	movl	$1, %r15d
	.loc 3 1765 33 view .LVU274
	je	.L65
.LVL79:
	.loc 3 1766 10 view .LVU275
	cmpq	%rdx, %rcx
	setl	%r15b
.LVL80:
.L65:
.LBB1133:
.LBI1133:
	.loc 3 565 4 is_stmt 1 view .LVU276
.LBB1134:
.LBI1134:
	.loc 3 651 2 view .LVU277
.LBB1135:
.LBB1136:
.LBI1136:
	.loc 3 598 7 view .LVU278
.LBB1137:
.LBI1137:
	.loc 4 435 7 view .LVU279
.LBB1138:
.LBI1138:
	.loc 5 99 7 view .LVU280
.LBB1139:
	.loc 5 111 41 is_stmt 0 view .LVU281
	movl	$40, %ecx
	call	_Znwy
.LVL81:
	.loc 5 111 41 view .LVU282
.LBE1139:
.LBE1138:
.LBE1137:
.LBE1136:
.LBB1140:
.LBI1140:
	.loc 3 632 2 is_stmt 1 view .LVU283
	.loc 3 632 2 is_stmt 0 view .LVU284
.LBE1140:
.LBE1135:
.LBE1134:
.LBE1133:
.LBE1131:
.LBE1130:
.LBE1174:
.LBE1181:
.LBE1189:
.LBE1196:
	.file 12 "C:/Program Files/CodeBlocks/MinGW/lib/gcc/x86_64-w64-mingw32/8.1.0/include/c++/new"
	.loc 12 169 3 is_stmt 1 view .LVU285
.LBB1197:
.LBB1190:
.LBB1182:
.LBB1175:
.LBB1167:
.LBB1162:
.LBB1158:
.LBB1155:
.LBB1152:
.LBB1149:
.LBB1141:
.LBI1141:
	.loc 4 474 2 view .LVU286
.LBB1142:
.LBI1142:
	.loc 5 135 2 view .LVU287
	.loc 5 135 2 is_stmt 0 view .LVU288
.LBE1142:
.LBE1141:
.LBE1149:
.LBE1152:
.LBE1155:
.LBE1158:
.LBE1162:
.LBE1167:
.LBE1175:
.LBE1182:
.LBE1190:
.LBE1197:
	.loc 12 169 3 is_stmt 1 view .LVU289
.LBB1198:
.LBB1191:
.LBB1183:
.LBB1176:
.LBB1168:
.LBB1163:
.LBB1159:
.LBB1156:
.LBB1153:
.LBB1150:
.LBB1147:
.LBB1145:
.LBB1143:
	.loc 12 169 3 is_stmt 0 view .LVU290
	movq	40(%rsp), %rdx
.LBE1143:
.LBE1145:
.LBE1147:
.LBE1150:
.LBE1153:
.LBE1156:
.LBE1159:
	.loc 3 1771 31 view .LVU291
	movzbl	%r15b, %ecx
	movq	%r13, %r9
	movq	%rbx, %r8
.LBE1163:
.LBE1168:
.LBE1176:
.LBE1183:
.LBE1191:
	.loc 8 16 5 view .LVU292
	addq	$1, %rdi
.LVL82:
	.loc 8 16 5 view .LVU293
	addq	$8, %rsi
.LBB1192:
.LBB1184:
.LBB1177:
.LBB1169:
.LBB1164:
.LBB1160:
.LBB1157:
.LBB1154:
.LBB1151:
.LBB1148:
.LBB1146:
.LBB1144:
	movq	%rdx, 32(%rax)
.LVL83:
	.loc 8 16 5 view .LVU294
.LBE1144:
.LBE1146:
.LBE1148:
.LBE1151:
.LBE1154:
.LBE1157:
.LBE1160:
	.loc 3 1771 31 view .LVU295
	movq	%rax, %rdx
	call	_ZSt29_Rb_tree_insert_and_rebalancebPSt18_Rb_tree_node_baseS0_RS_
.LVL84:
	.loc 3 1771 31 view .LVU296
.LBE1164:
.LBE1169:
.LBE1177:
.LBE1184:
.LBE1192:
	.loc 8 16 26 view .LVU297
	movq	32(%rsp), %rax
.LBB1193:
.LBB1185:
.LBB1178:
.LBB1170:
.LBB1165:
	.loc 3 1773 2 view .LVU298
	addq	$1, 88(%rsp)
.LVL85:
.LBB1161:
.LBI1161:
	.loc 3 273 7 is_stmt 1 view .LVU299
	.loc 3 273 7 is_stmt 0 view .LVU300
.LBE1161:
.LBE1165:
.LBE1170:
.LBE1178:
.LBE1185:
.LBB1186:
.LBI1186:
	.loc 3 348 7 is_stmt 1 view .LVU301
	.loc 3 348 7 is_stmt 0 view .LVU302
.LBE1186:
.LBE1193:
	.loc 8 16 26 view .LVU303
	cmpq	%rdi, %rax
	jg	.L70
.LBE1198:
	.loc 8 21 5 is_stmt 1 view .LVU304
	.loc 8 21 10 is_stmt 0 view .LVU305
	movq	$0, 40(%rsp)
	.loc 8 22 5 is_stmt 1 view .LVU306
.LVL86:
.LBB1199:
	.loc 8 22 26 is_stmt 0 view .LVU307
	testq	%rax, %rax
	jle	.L71
.LBB1200:
.LBB1201:
.LBB1202:
	.file 13 "C:/Program Files/CodeBlocks/MinGW/lib/gcc/x86_64-w64-mingw32/8.1.0/include/c++/ostream"
	.loc 13 561 18 view .LVU308
	movq	.refptr._ZSt4cout(%rip), %r14
.LBE1202:
.LBE1201:
.LBB1204:
.LBB1205:
.LBB1206:
.LBB1207:
.LBB1208:
.LBB1209:
	.loc 3 1919 18 view .LVU309
	leaq	8(%rbp), %rsi
.LBE1209:
.LBE1208:
.LBE1207:
.LBE1206:
.LBE1205:
.LBE1204:
.LBE1200:
	.loc 8 22 19 view .LVU310
	xorl	%r13d, %r13d
.LVL87:
	.p2align 4,,10
.L82:
.LBB1272:
.LBB1234:
.LBB1203:
	.loc 13 561 18 view .LVU311
	leaq	.LC0(%rip), %rdx
	movl	$4, %r8d
	movq	%r14, %rcx
	call	_ZSt16__ostream_insertIcSt11char_traitsIcEERSt13basic_ostreamIT_T0_ES6_PKS3_x
.LVL88:
	.loc 13 561 18 view .LVU312
.LBE1203:
.LBE1234:
.LBB1235:
.LBI1235:
	.loc 13 201 7 is_stmt 1 view .LVU313
.LBB1236:
	.loc 13 202 29 is_stmt 0 view .LVU314
	movq	40(%rsp), %rdx
	movq	.refptr._ZSt4cout(%rip), %rcx
	call	_ZNSo9_M_insertIxEERSoT_
.LVL89:
	.loc 13 202 29 view .LVU315
.LBE1236:
.LBE1235:
.LBB1237:
.LBB1238:
	.loc 13 561 18 view .LVU316
	leaq	.LC2(%rip), %rdx
	movl	$1, %r8d
	movq	%rax, %rcx
	call	_ZSt16__ostream_insertIcSt11char_traitsIcEERSt13basic_ostreamIT_T0_ES6_PKS3_x
.LVL90:
.LBE1238:
.LBE1237:
	.loc 8 27 9 is_stmt 1 view .LVU317
.LBB1239:
.LBB1215:
.LBI1205:
	.loc 10 821 7 view .LVU318
.LBB1214:
.LBI1206:
	.loc 3 1210 7 view .LVU319
.LBB1213:
.LBB1211:
.LBI1211:
	.loc 3 763 7 view .LVU320
	.loc 3 763 7 is_stmt 0 view .LVU321
.LBE1211:
	.loc 3 1211 56 view .LVU322
	movq	64(%rsp), %rax
.LVL91:
.LBB1212:
.LBI1208:
	.loc 3 1915 5 is_stmt 1 view .LVU323
	.loc 3 1915 5 is_stmt 0 view .LVU324
	movq	40(%rsp), %rdx
.LBB1210:
	.loc 3 1919 18 view .LVU325
	testq	%rax, %rax
	je	.L74
	movq	%rsi, %rbx
	jmp	.L75
.LVL92:
	.p2align 4,,10
.L106:
	.loc 3 1921 28 view .LVU326
	movq	%rax, %rbx
	movq	16(%rax), %rax
.LVL93:
	.loc 3 1919 18 view .LVU327
	testq	%rax, %rax
	je	.L105
.LVL94:
.L75:
	.loc 3 1920 2 view .LVU328
	cmpq	%rdx, 32(%rax)
	jg	.L106
	.loc 3 1923 18 view .LVU329
	movq	24(%rax), %rax
.LVL95:
	.loc 3 1919 18 view .LVU330
	testq	%rax, %rax
	jne	.L75
.LVL96:
.L105:
	.loc 3 1919 18 view .LVU331
.LBE1210:
.LBE1212:
.LBE1213:
.LBE1214:
.LBE1215:
.LBB1216:
.LBI1216:
	.loc 10 349 7 is_stmt 1 view .LVU332
.LBB1217:
.LBI1217:
	.loc 3 988 7 view .LVU333
.LBB1218:
.LBI1218:
	.loc 3 345 7 view .LVU334
	.loc 3 345 7 is_stmt 0 view .LVU335
.LBE1218:
.LBE1217:
.LBE1216:
	.loc 8 27 53 view .LVU336
	cmpq	%rsi, %rbx
	je	.L74
.LBB1221:
.LBB1222:
	.loc 13 202 29 view .LVU337
	movq	.refptr._ZSt4cout(%rip), %rdi
.LBE1222:
.LBE1221:
.LBB1224:
.LBB1225:
	.loc 13 561 18 view .LVU338
	leaq	.LC2(%rip), %r15
.LVL97:
	.p2align 4,,10
.L76:
	.loc 13 561 18 view .LVU339
.LBE1225:
.LBE1224:
	.loc 8 28 13 is_stmt 1 view .LVU340
.LBB1227:
.LBI1221:
	.loc 13 201 7 view .LVU341
.LBB1223:
	.loc 13 202 29 is_stmt 0 view .LVU342
	movq	32(%rbx), %rdx
	movq	%rdi, %rcx
	call	_ZNSo9_M_insertIxEERSoT_
.LVL98:
	.loc 13 202 29 view .LVU343
.LBE1223:
.LBE1227:
.LBB1228:
.LBB1226:
	.loc 13 561 18 view .LVU344
	movl	$1, %r8d
	movq	%r15, %rdx
	movq	%rax, %rcx
	call	_ZSt16__ostream_insertIcSt11char_traitsIcEERSt13basic_ostreamIT_T0_ES6_PKS3_x
.LVL99:
	.loc 13 561 18 view .LVU345
.LBE1226:
.LBE1228:
.LBB1229:
.LBI1229:
	.loc 3 364 7 is_stmt 1 view .LVU346
.LBB1230:
	.loc 3 366 30 is_stmt 0 view .LVU347
	movq	%rbx, %rcx
	call	_ZSt18_Rb_tree_incrementPKSt18_Rb_tree_node_base
.LVL100:
.LBE1230:
.LBE1229:
	.loc 8 27 53 view .LVU348
	cmpq	%rsi, %rax
.LBB1232:
.LBB1231:
	.loc 3 366 30 view .LVU349
	movq	%rax, %rbx
.LVL101:
	.loc 3 366 30 view .LVU350
.LBE1231:
.LBE1232:
.LBB1233:
	.loc 10 349 7 is_stmt 1 view .LVU351
.LBB1220:
	.loc 3 988 7 view .LVU352
.LBB1219:
	.loc 3 345 7 view .LVU353
	.loc 3 345 7 is_stmt 0 view .LVU354
.LBE1219:
.LBE1220:
.LBE1233:
	.loc 8 27 53 view .LVU355
	jne	.L76
	movq	40(%rsp), %rdx
.LVL102:
.L74:
	.loc 8 27 53 view .LVU356
.LBE1239:
	.loc 8 31 9 is_stmt 1 view .LVU357
	.loc 8 31 14 is_stmt 0 view .LVU358
	addq	(%r12,%r13,8), %rdx
.LBB1240:
.LBB1241:
	.loc 10 670 30 view .LVU359
	movq	%rbp, %rcx
.LBE1241:
.LBE1240:
	.loc 8 31 14 view .LVU360
	movq	%rdx, 40(%rsp)
	.loc 8 32 9 is_stmt 1 view .LVU361
.LVL103:
.LBB1243:
.LBI1240:
	.loc 10 669 7 view .LVU362
.LBB1242:
	.loc 10 670 30 is_stmt 0 view .LVU363
	leaq	40(%rsp), %rdx
.LVL104:
	.loc 10 670 30 view .LVU364
	call	_ZNSt8_Rb_treeIxxSt9_IdentityIxESt4lessIxESaIxEE5eraseERKx
.LVL105:
	.loc 10 670 30 view .LVU365
.LBE1242:
.LBE1243:
	.loc 8 33 9 is_stmt 1 view .LVU366
.LBB1244:
.LBI1244:
	.loc 13 108 7 view .LVU367
.LBB1245:
.LBI1245:
	.loc 13 590 5 view .LVU368
.LBB1246:
.LBB1247:
.LBI1247:
	.file 14 "C:/Program Files/CodeBlocks/MinGW/lib/gcc/x86_64-w64-mingw32/8.1.0/include/c++/bits/basic_ios.h"
	.loc 14 449 7 view .LVU369
	.loc 14 449 7 is_stmt 0 view .LVU370
.LBE1247:
	.loc 13 591 19 view .LVU371
	movq	.refptr._ZSt4cout(%rip), %rax
	movq	(%rax), %rdx
.LBB1261:
.LBB1248:
	.loc 14 450 30 view .LVU372
	movq	-24(%rdx), %rdx
	movq	240(%rdx,%rax), %rbx
.LVL106:
.LBB1249:
.LBI1249:
	.loc 14 47 5 is_stmt 1 view .LVU373
.LBB1250:
	.loc 14 49 7 is_stmt 0 view .LVU374
	testq	%rbx, %rbx
	je	.L107
.LVL107:
	.loc 14 49 7 view .LVU375
.LBE1250:
.LBE1249:
.LBB1252:
.LBI1252:
	.loc 1 872 7 is_stmt 1 view .LVU376
.LBB1253:
	.loc 1 874 2 view .LVU377
	cmpb	$0, 56(%rbx)
	je	.L80
	.loc 1 875 4 view .LVU378
	movsbl	67(%rbx), %edx
.LVL108:
.L81:
	.loc 1 875 4 is_stmt 0 view .LVU379
.LBE1253:
.LBE1252:
.LBE1248:
.LBE1261:
	.loc 13 591 19 view .LVU380
	movq	.refptr._ZSt4cout(%rip), %rcx
	call	_ZNSo3putEc
.LVL109:
.LBB1262:
.LBI1262:
	.loc 13 612 5 is_stmt 1 view .LVU381
.LBB1263:
	.loc 13 613 25 is_stmt 0 view .LVU382
	movq	%rax, %rcx
	call	_ZNSo5flushEv
.LVL110:
	.loc 13 613 25 view .LVU383
.LBE1263:
.LBE1262:
.LBE1246:
.LBE1245:
.LBE1244:
.LBE1272:
	.loc 8 22 5 view .LVU384
	addq	$1, %r13
.LVL111:
	.loc 8 22 26 view .LVU385
	cmpq	%r13, 32(%rsp)
	jg	.L82
.LVL112:
.L71:
	.loc 8 22 26 view .LVU386
.LBE1199:
.LBB1275:
.LBB1276:
	.loc 13 561 18 view .LVU387
	movq	.refptr._ZSt4cout(%rip), %rcx
	movl	$12, %r8d
	leaq	.LC1(%rip), %rdx
	call	_ZSt16__ostream_insertIcSt11char_traitsIcEERSt13basic_ostreamIT_T0_ES6_PKS3_x
.LVL113:
	.loc 13 561 18 view .LVU388
.LBE1276:
.LBE1275:
.LBB1277:
.LBI1277:
	.loc 13 108 7 is_stmt 1 view .LVU389
.LBB1278:
.LBI1278:
	.loc 13 590 5 view .LVU390
.LBB1279:
.LBB1280:
.LBI1280:
	.loc 14 449 7 view .LVU391
	.loc 14 449 7 is_stmt 0 view .LVU392
.LBE1280:
	.loc 13 591 19 view .LVU393
	movq	.refptr._ZSt4cout(%rip), %rax
	movq	(%rax), %rdx
.LBB1293:
.LBB1281:
	.loc 14 450 30 view .LVU394
	movq	-24(%rdx), %rdx
	movq	240(%rdx,%rax), %rbx
.LVL114:
.LBB1282:
.LBI1282:
	.loc 14 47 5 is_stmt 1 view .LVU395
.LBB1283:
	.loc 14 49 7 is_stmt 0 view .LVU396
	testq	%rbx, %rbx
	je	.L108
.LVL115:
	.loc 14 49 7 view .LVU397
.LBE1283:
.LBE1282:
.LBB1285:
.LBI1285:
	.loc 1 872 7 is_stmt 1 view .LVU398
.LBB1286:
	.loc 1 874 2 view .LVU399
	cmpb	$0, 56(%rbx)
	je	.L84
	.loc 1 875 4 view .LVU400
	.loc 1 875 51 is_stmt 0 view .LVU401
	movzbl	67(%rbx), %eax
.LVL116:
.L85:
	.loc 1 875 51 view .LVU402
.LBE1286:
.LBE1285:
.LBE1281:
.LBE1293:
	.loc 13 591 19 view .LVU403
	movq	.refptr._ZSt4cout(%rip), %rcx
	movsbl	%al, %edx
	call	_ZNSo3putEc
.LVL117:
.LBB1294:
.LBI1294:
	.loc 13 612 5 is_stmt 1 view .LVU404
.LBB1295:
	.loc 13 613 25 is_stmt 0 view .LVU405
	movq	%rax, %rcx
	call	_ZNSo5flushEv
.LVL118:
	.loc 13 613 25 view .LVU406
.LBE1295:
.LBE1294:
.LBE1279:
.LBE1278:
.LBE1277:
	.loc 8 39 5 is_stmt 1 view .LVU407
.LBB1299:
.LBI1299:
	.loc 10 277 7 view .LVU408
.LBB1300:
.LBI1300:
	.loc 3 964 7 view .LVU409
.LBB1301:
.LBB1302:
.LBI1302:
	.loc 3 752 7 view .LVU410
	.loc 3 752 7 is_stmt 0 view .LVU411
.LBE1302:
	.loc 3 965 9 view .LVU412
	movq	64(%rsp), %rdx
	movq	%rbp, %rcx
	call	_ZNSt8_Rb_treeIxxSt9_IdentityIxESt4lessIxESaIxEE8_M_eraseEPSt13_Rb_tree_nodeIxE
.LVL119:
.LBB1303:
.LBI1303:
	.loc 3 692 9 is_stmt 1 view .LVU413
.LBB1304:
.LBI1304:
	.loc 11 139 7 view .LVU414
.LBB1305:
.LBI1305:
	.loc 5 86 7 view .LVU415
	.loc 5 86 7 is_stmt 0 view .LVU416
.LBE1305:
.LBE1304:
.LBE1303:
.LBE1301:
.LBE1300:
.LBE1299:
	.loc 8 40 1 view .LVU417
	xorl	%eax, %eax
	addq	$104, %rsp
	.cfi_remember_state
	.cfi_def_cfa_offset 72
	popq	%rbx
	.cfi_restore 3
	.cfi_def_cfa_offset 64
	popq	%rsi
	.cfi_restore 4
	.cfi_def_cfa_offset 56
	popq	%rdi
	.cfi_restore 5
	.cfi_def_cfa_offset 48
	popq	%rbp
	.cfi_restore 6
	.cfi_def_cfa_offset 40
.LVL120:
	.loc 8 40 1 view .LVU418
	popq	%r12
	.cfi_restore 12
	.cfi_def_cfa_offset 32
	popq	%r13
	.cfi_restore 13
	.cfi_def_cfa_offset 24
	popq	%r14
	.cfi_restore 14
	.cfi_def_cfa_offset 16
	popq	%r15
	.cfi_restore 15
	.cfi_def_cfa_offset 8
	ret
.LVL121:
	.p2align 4,,10
.L80:
	.cfi_restore_state
.LBB1306:
.LBB1273:
.LBB1270:
.LBB1268:
.LBB1266:
.LBB1264:
.LBB1259:
.LBB1257:
.LBB1256:
.LBB1254:
.LBB1255:
	.loc 1 876 2 is_stmt 1 view .LVU419
	.loc 1 876 21 is_stmt 0 view .LVU420
	movq	%rbx, %rcx
	call	_ZNKSt5ctypeIcE13_M_widen_initEv
.LVL122:
	.loc 1 877 2 is_stmt 1 view .LVU421
	.loc 1 877 27 is_stmt 0 view .LVU422
	movq	(%rbx), %rax
	leaq	_ZNKSt5ctypeIcE8do_widenEc(%rip), %rcx
	movl	$10, %edx
	movq	48(%rax), %rax
	cmpq	%rcx, %rax
	je	.L81
	.loc 1 877 23 view .LVU423
	movq	%rbx, %rcx
	call	*%rax
.LVL123:
	movsbl	%al, %edx
	jmp	.L81
.LVL124:
	.p2align 4,,10
.L102:
	.loc 1 877 23 view .LVU424
.LBE1255:
.LBE1254:
.LBE1256:
.LBE1257:
.LBE1259:
.LBE1264:
.LBE1266:
.LBE1268:
.LBE1270:
.LBE1273:
.LBE1306:
.LBB1307:
.LBB1194:
.LBB1187:
.LBB1179:
.LBB1171:
.LBB1126:
	.loc 3 2081 17 view .LVU425
	movq	%r13, %rbx
.LVL125:
	.loc 3 2081 17 view .LVU426
.LBE1126:
.LBE1171:
.LBB1172:
.LBB1166:
	.loc 3 1766 10 view .LVU427
	movl	$1, %r15d
	jmp	.L65
.LVL126:
.L84:
	.loc 3 1766 10 view .LVU428
.LBE1166:
.LBE1172:
.LBE1179:
.LBE1187:
.LBE1194:
.LBE1307:
.LBB1308:
.LBB1298:
.LBB1297:
.LBB1296:
.LBB1292:
.LBB1290:
.LBB1289:
.LBB1287:
.LBB1288:
	.loc 1 876 2 is_stmt 1 view .LVU429
	.loc 1 876 21 is_stmt 0 view .LVU430
	movq	%rbx, %rcx
	call	_ZNKSt5ctypeIcE13_M_widen_initEv
.LVL127:
	.loc 1 877 2 is_stmt 1 view .LVU431
	.loc 1 877 27 is_stmt 0 view .LVU432
	movq	(%rbx), %rax
	.loc 1 877 23 view .LVU433
	movl	$10, %edx
	movq	%rbx, %rcx
	call	*48(%rax)
.LVL128:
	jmp	.L85
.LVL129:
.L108:
	.loc 1 877 23 view .LVU434
.LBE1288:
.LBE1287:
.LBE1289:
.LBE1290:
.LBB1291:
.LBB1284:
	.loc 14 50 18 view .LVU435
	call	_ZSt16__throw_bad_castv
.LVL130:
.L107:
	.loc 14 50 18 view .LVU436
.LBE1284:
.LBE1291:
.LBE1292:
.LBE1296:
.LBE1297:
.LBE1298:
.LBE1308:
.LBB1309:
.LBB1274:
.LBB1271:
.LBB1269:
.LBB1267:
.LBB1265:
.LBB1260:
.LBB1258:
.LBB1251:
	call	_ZSt16__throw_bad_castv
.LVL131:
.LEHE1:
.L90:
	.loc 14 50 18 view .LVU437
.LBE1251:
.LBE1258:
.LBE1260:
.LBE1265:
.LBE1267:
.LBE1269:
.LBE1271:
.LBE1274:
.LBE1309:
.LBB1310:
.LBB1311:
.LBB1312:
	.loc 3 965 9 view .LVU438
	movq	64(%rsp), %rdx
	movq	%rax, %rbx
.LVL132:
	.loc 3 965 9 view .LVU439
.LBE1312:
.LBE1311:
.LBI1310:
	.loc 10 277 7 is_stmt 1 view .LVU440
.LBB1318:
.LBI1311:
	.loc 3 964 7 view .LVU441
.LBB1317:
.LBB1313:
.LBI1313:
	.loc 3 752 7 view .LVU442
	.loc 3 752 7 is_stmt 0 view .LVU443
.LBE1313:
	.loc 3 965 9 view .LVU444
	movq	%rbp, %rcx
	call	_ZNSt8_Rb_treeIxxSt9_IdentityIxESt4lessIxESaIxEE8_M_eraseEPSt13_Rb_tree_nodeIxE
.LVL133:
.LBB1314:
.LBI1314:
	.loc 3 692 9 is_stmt 1 view .LVU445
.LBB1315:
.LBI1315:
	.loc 11 139 7 view .LVU446
.LBB1316:
.LBI1316:
	.loc 5 86 7 view .LVU447
	.loc 5 86 7 is_stmt 0 view .LVU448
	movq	%rbx, %rcx
.LEHB2:
	call	_Unwind_Resume
	nop
.LVL134:
.LEHE2:
.LBE1316:
.LBE1315:
.LBE1314:
.LBE1317:
.LBE1318:
.LBE1310:
	.cfi_endproc
.LFE2454:
	.def	__gxx_personality_seh0;	.scl	2;	.type	32;	.endef
	.seh_handler	__gxx_personality_seh0, @unwind, @except
	.seh_handlerdata
.LLSDA2454:
	.byte	0xff
	.byte	0xff
	.byte	0x1
	.uleb128 .LLSDACSE2454-.LLSDACSB2454
.LLSDACSB2454:
	.uleb128 .LEHB0-.LFB2454
	.uleb128 .LEHE0-.LEHB0
	.uleb128 0
	.uleb128 0
	.uleb128 .LEHB1-.LFB2454
	.uleb128 .LEHE1-.LEHB1
	.uleb128 .L90-.LFB2454
	.uleb128 0
	.uleb128 .LEHB2-.LFB2454
	.uleb128 .LEHE2-.LEHB2
	.uleb128 0
	.uleb128 0
.LLSDACSE2454:
	.section	.text.startup,"x"
	.seh_endproc
	.p2align 4,,15
	.def	_GLOBAL__sub_I_arr;	.scl	3;	.type	32;	.endef
	.seh_proc	_GLOBAL__sub_I_arr
_GLOBAL__sub_I_arr:
.LFB3088:
	.loc 8 40 1 is_stmt 1 view -0
	.cfi_startproc
	subq	$40, %rsp
	.seh_stackalloc	40
	.cfi_def_cfa_offset 48
	.seh_endprologue
.LVL135:
.LBB1319:
.LBI1319:
	.loc 8 40 1 view .LVU450
.LBB1320:
	.loc 2 74 25 is_stmt 0 view .LVU451
	leaq	_ZStL8__ioinit(%rip), %rcx
	call	_ZNSt8ios_base4InitC1Ev
.LVL136:
	leaq	__tcf_0(%rip), %rcx
.LBE1320:
.LBE1319:
	.loc 8 40 1 view .LVU452
	addq	$40, %rsp
	.cfi_def_cfa_offset 8
.LBB1322:
.LBB1321:
	.loc 2 74 25 view .LVU453
	jmp	atexit
.LVL137:
.LBE1321:
.LBE1322:
	.cfi_endproc
.LFE3088:
	.seh_endproc
	.section	.ctors,"w"
	.align 8
	.quad	_GLOBAL__sub_I_arr
	.globl	arr
	.bss
	.align 32
arr:
	.space 1600000
.lcomm _ZStL8__ioinit,1,1
	.text
.Letext0:
	.file 15 "C:/Program Files/CodeBlocks/MinGW/lib/gcc/x86_64-w64-mingw32/8.1.0/include/c++/cwchar"
	.file 16 "C:/Program Files/CodeBlocks/MinGW/lib/gcc/x86_64-w64-mingw32/8.1.0/include/c++/bits/exception_ptr.h"
	.file 17 "C:/Program Files/CodeBlocks/MinGW/lib/gcc/x86_64-w64-mingw32/8.1.0/include/c++/type_traits"
	.file 18 "C:/Program Files/CodeBlocks/MinGW/lib/gcc/x86_64-w64-mingw32/8.1.0/include/c++/x86_64-w64-mingw32/bits/c++config.h"
	.file 19 "C:/Program Files/CodeBlocks/MinGW/lib/gcc/x86_64-w64-mingw32/8.1.0/include/c++/debug/debug.h"
	.file 20 "C:/Program Files/CodeBlocks/MinGW/lib/gcc/x86_64-w64-mingw32/8.1.0/include/c++/bits/char_traits.h"
	.file 21 "C:/Program Files/CodeBlocks/MinGW/lib/gcc/x86_64-w64-mingw32/8.1.0/include/c++/cstdint"
	.file 22 "C:/Program Files/CodeBlocks/MinGW/lib/gcc/x86_64-w64-mingw32/8.1.0/include/c++/clocale"
	.file 23 "C:/Program Files/CodeBlocks/MinGW/lib/gcc/x86_64-w64-mingw32/8.1.0/include/c++/limits"
	.file 24 "C:/Program Files/CodeBlocks/MinGW/lib/gcc/x86_64-w64-mingw32/8.1.0/include/c++/string_view"
	.file 25 "C:/Program Files/CodeBlocks/MinGW/lib/gcc/x86_64-w64-mingw32/8.1.0/include/c++/bits/basic_string.h"
	.file 26 "C:/Program Files/CodeBlocks/MinGW/lib/gcc/x86_64-w64-mingw32/8.1.0/include/c++/cstdlib"
	.file 27 "C:/Program Files/CodeBlocks/MinGW/lib/gcc/x86_64-w64-mingw32/8.1.0/include/c++/cstdio"
	.file 28 "C:/Program Files/CodeBlocks/MinGW/lib/gcc/x86_64-w64-mingw32/8.1.0/include/c++/system_error"
	.file 29 "C:/Program Files/CodeBlocks/MinGW/lib/gcc/x86_64-w64-mingw32/8.1.0/include/c++/bits/ios_base.h"
	.file 30 "C:/Program Files/CodeBlocks/MinGW/lib/gcc/x86_64-w64-mingw32/8.1.0/include/c++/cwctype"
	.file 31 "C:/Program Files/CodeBlocks/MinGW/lib/gcc/x86_64-w64-mingw32/8.1.0/include/c++/bits/ostream.tcc"
	.file 32 "C:/Program Files/CodeBlocks/MinGW/lib/gcc/x86_64-w64-mingw32/8.1.0/include/c++/bits/istream.tcc"
	.file 33 "C:/Program Files/CodeBlocks/MinGW/lib/gcc/x86_64-w64-mingw32/8.1.0/include/c++/iosfwd"
	.file 34 "C:/Program Files/CodeBlocks/MinGW/lib/gcc/x86_64-w64-mingw32/8.1.0/include/c++/utility"
	.file 35 "C:/Program Files/CodeBlocks/MinGW/lib/gcc/x86_64-w64-mingw32/8.1.0/include/c++/optional"
	.file 36 "C:/Program Files/CodeBlocks/MinGW/lib/gcc/x86_64-w64-mingw32/8.1.0/include/c++/bits/stl_function.h"
	.file 37 "C:/Program Files/CodeBlocks/MinGW/lib/gcc/x86_64-w64-mingw32/8.1.0/include/c++/bits/node_handle.h"
	.file 38 "C:/Program Files/CodeBlocks/MinGW/lib/gcc/x86_64-w64-mingw32/8.1.0/include/c++/initializer_list"
	.file 39 "C:/Program Files/CodeBlocks/MinGW/lib/gcc/x86_64-w64-mingw32/8.1.0/include/c++/bits/enable_special_members.h"
	.file 40 "C:/Program Files/CodeBlocks/MinGW/lib/gcc/x86_64-w64-mingw32/8.1.0/include/c++/bits/ostream_insert.h"
	.file 41 "C:/Program Files/CodeBlocks/MinGW/lib/gcc/x86_64-w64-mingw32/8.1.0/include/c++/bits/functexcept.h"
	.file 42 "C:/Program Files/CodeBlocks/MinGW/lib/gcc/x86_64-w64-mingw32/8.1.0/include/c++/bits/predefined_ops.h"
	.file 43 "C:/Program Files/CodeBlocks/MinGW/lib/gcc/x86_64-w64-mingw32/8.1.0/include/c++/ext/numeric_traits.h"
	.file 44 "C:/Program Files/CodeBlocks/MinGW/lib/gcc/x86_64-w64-mingw32/8.1.0/include/c++/ext/alloc_traits.h"
	.file 45 "C:/Program Files/CodeBlocks/MinGW/lib/gcc/x86_64-w64-mingw32/8.1.0/include/c++/ext/aligned_buffer.h"
	.file 46 "C:/Program Files/CodeBlocks/MinGW/x86_64-w64-mingw32/include/crtdefs.h"
	.file 47 "C:/Program Files/CodeBlocks/MinGW/x86_64-w64-mingw32/include/locale.h"
	.file 48 "C:/Program Files/CodeBlocks/MinGW/x86_64-w64-mingw32/include/wchar.h"
	.file 49 "C:/Program Files/CodeBlocks/MinGW/x86_64-w64-mingw32/include/swprintf.inl"
	.file 50 "C:/Program Files/CodeBlocks/MinGW/x86_64-w64-mingw32/include/stdint.h"
	.file 51 "C:/Program Files/CodeBlocks/MinGW/x86_64-w64-mingw32/include/stdio.h"
	.file 52 "C:/Program Files/CodeBlocks/MinGW/x86_64-w64-mingw32/include/ctype.h"
	.file 53 "C:/Program Files/CodeBlocks/MinGW/x86_64-w64-mingw32/include/process.h"
	.file 54 "C:/Program Files/CodeBlocks/MinGW/x86_64-w64-mingw32/include/pthread.h"
	.file 55 "C:/Program Files/CodeBlocks/MinGW/lib/gcc/x86_64-w64-mingw32/8.1.0/include/c++/x86_64-w64-mingw32/bits/atomic_word.h"
	.file 56 "C:/Program Files/CodeBlocks/MinGW/x86_64-w64-mingw32/include/stdlib.h"
	.file 57 "C:/Program Files/CodeBlocks/MinGW/x86_64-w64-mingw32/include/malloc.h"
	.file 58 "C:/Program Files/CodeBlocks/MinGW/x86_64-w64-mingw32/include/wctype.h"
	.file 59 "<built-in>"
	.section	.rdata$.refptr._ZSt4cout, "dr"
	.globl	.refptr._ZSt4cout
	.linkonce	discard
.refptr._ZSt4cout:
	.quad	_ZSt4cout
	.section	.rdata$.refptr._ZSt3cin, "dr"
	.globl	.refptr._ZSt3cin
	.linkonce	discard
.refptr._ZSt3cin:
	.quad	_ZSt3cin
