	.file	"main.cpp"
	.text
.Ltext0:
	.cfi_sections	.debug_frame
	.p2align 4,,15
	.def	__tcf_0;	.scl	3;	.type	32;	.endef
	.seh_proc	__tcf_0
__tcf_0:
.LFB2976:
	.file 1 "C:/Program Files/CodeBlocks/MinGW/lib/gcc/x86_64-w64-mingw32/8.1.0/include/c++/iostream"
	.loc 1 74 25 view -0
	.cfi_startproc
	.seh_endprologue
	.loc 1 74 25 is_stmt 0 view .LVU1
	leaq	_ZStL8__ioinit(%rip), %rcx
	jmp	_ZNSt8ios_base4InitD1Ev
.LVL0:
	.cfi_endproc
.LFE2976:
	.seh_endproc
	.p2align 4,,15
	.globl	_Z9factorizei
	.def	_Z9factorizei;	.scl	2;	.type	32;	.endef
	.seh_proc	_Z9factorizei
_Z9factorizei:
.LVL1:
.LFB1912:
	.file 2 "C:/Users/Saha2/Desktop/Code-Samples/C++/temporary_stuff/Adler_test/main.cpp"
	.loc 2 7 31 is_stmt 1 view -0
	.cfi_startproc
	.loc 2 7 31 is_stmt 0 view .LVU3
	.seh_endprologue
	.loc 2 8 5 is_stmt 1 view .LVU4
.LVL2:
	.loc 2 9 5 view .LVU5
	.loc 2 8 14 is_stmt 0 view .LVU6
	xorl	%r9d, %r9d
	.loc 2 9 12 view .LVU7
	testb	$1, %cl
	jne	.L7
.LVL3:
	.p2align 4,,10
.L4:
	.loc 2 10 9 is_stmt 1 view .LVU8
	.loc 2 10 16 is_stmt 0 view .LVU9
	movl	%ecx, %eax
	.loc 2 11 13 view .LVU10
	addq	$2, %r9
.LVL4:
	.loc 2 10 16 view .LVU11
	shrl	$31, %eax
	addl	%eax, %ecx
.LVL5:
	.loc 2 10 16 view .LVU12
	sarl	%ecx
.LVL6:
	.loc 2 11 9 is_stmt 1 view .LVU13
	.loc 2 9 5 view .LVU14
	.loc 2 9 12 is_stmt 0 view .LVU15
	testb	$1, %cl
	je	.L4
.LVL7:
.L7:
.LBB114:
	.loc 2 13 41 view .LVU16
	cmpl	$8, %ecx
	jle	.L5
	.loc 2 13 41 view .LVU17
	movl	$3, %r10d
.LVL8:
	.p2align 4,,10
.L6:
	.loc 2 14 26 view .LVU18
	movl	%ecx, %eax
	movl	%r10d, %r11d
	movl	%r10d, %r8d
.LVL9:
	.loc 2 14 9 is_stmt 1 view .LVU19
	.loc 2 14 26 is_stmt 0 view .LVU20
	cltd
	idivl	%r10d
.LVL10:
	.loc 2 14 17 view .LVU21
	testl	%edx, %edx
	jne	.L8
.LVL11:
	.p2align 4,,10
.L9:
	.loc 2 15 13 is_stmt 1 view .LVU22
	.loc 2 15 20 is_stmt 0 view .LVU23
	movl	%ecx, %eax
	.loc 2 16 17 view .LVU24
	addq	%r10, %r9
.LVL12:
	.loc 2 15 20 view .LVU25
	cltd
	idivl	%r8d
	.loc 2 14 26 view .LVU26
	cltd
	.loc 2 15 20 view .LVU27
	movl	%eax, %ecx
.LVL13:
	.loc 2 16 13 is_stmt 1 view .LVU28
	.loc 2 14 9 view .LVU29
	.loc 2 14 26 is_stmt 0 view .LVU30
	idivl	%r8d
.LVL14:
	.loc 2 14 17 view .LVU31
	testl	%edx, %edx
	je	.L9
.LVL15:
.L8:
	.loc 2 14 17 view .LVU32
	addl	$2, %r11d
.LVL16:
	.loc 2 14 17 view .LVU33
	addq	$2, %r10
	.loc 2 13 32 discriminator 2 view .LVU34
	imull	%r11d, %r11d
.LVL17:
	.loc 2 13 41 discriminator 2 view .LVU35
	cmpl	%ecx, %r11d
	jle	.L6
.LVL18:
.L5:
	.loc 2 13 41 discriminator 2 view .LVU36
.LBE114:
	.loc 2 19 5 is_stmt 1 view .LVU37
	.loc 2 19 25 is_stmt 0 view .LVU38
	movslq	%ecx, %rax
	addq	%r9, %rax
	cmpl	$1, %ecx
	cmovne	%rax, %r9
.LVL19:
	.loc 2 21 1 view .LVU39
	movq	%r9, %rax
	ret
	.cfi_endproc
.LFE1912:
	.seh_endproc
	.section	.text$_ZN15PrimeFactorizerC1Ey,"x"
	.linkonce discard
	.align 2
	.p2align 4,,15
	.globl	_ZN15PrimeFactorizerC1Ey
	.def	_ZN15PrimeFactorizerC1Ey;	.scl	2;	.type	32;	.endef
	.seh_proc	_ZN15PrimeFactorizerC1Ey
_ZN15PrimeFactorizerC1Ey:
.LVL20:
.LFB2344:
	.loc 2 44 5 is_stmt 1 view -0
	.cfi_startproc
	.loc 2 44 5 is_stmt 0 view .LVU41
	pushq	%r15
	.seh_pushreg	%r15
	.cfi_def_cfa_offset 16
	.cfi_offset 15, -16
	pushq	%r14
	.seh_pushreg	%r14
	.cfi_def_cfa_offset 24
	.cfi_offset 14, -24
	pushq	%r13
	.seh_pushreg	%r13
	.cfi_def_cfa_offset 32
	.cfi_offset 13, -32
	pushq	%r12
	.seh_pushreg	%r12
	.cfi_def_cfa_offset 40
	.cfi_offset 12, -40
	pushq	%rbp
	.seh_pushreg	%rbp
	.cfi_def_cfa_offset 48
	.cfi_offset 6, -48
	pushq	%rdi
	.seh_pushreg	%rdi
	.cfi_def_cfa_offset 56
	.cfi_offset 5, -56
	pushq	%rsi
	.seh_pushreg	%rsi
	.cfi_def_cfa_offset 64
	.cfi_offset 4, -64
	pushq	%rbx
	.seh_pushreg	%rbx
	.cfi_def_cfa_offset 72
	.cfi_offset 3, -72
	subq	$168, %rsp
	.seh_stackalloc	168
	.cfi_def_cfa_offset 240
	movaps	%xmm6, 112(%rsp)
	.seh_savexmm	%xmm6, 112
	movaps	%xmm7, 128(%rsp)
	.seh_savexmm	%xmm7, 128
	movaps	%xmm8, 144(%rsp)
	.seh_savexmm	%xmm8, 144
	.cfi_offset 23, -128
	.cfi_offset 24, -112
	.cfi_offset 25, -96
	.seh_endprologue
.LBB172:
	.loc 2 45 9 is_stmt 1 view .LVU42
.LVL21:
.LBB173:
.LBI173:
	.file 3 "C:/Program Files/CodeBlocks/MinGW/lib/gcc/x86_64-w64-mingw32/8.1.0/include/c++/cmath"
	.loc 3 475 5 view .LVU43
.LBB174:
	.loc 3 476 28 is_stmt 0 view .LVU44
	testq	%rdx, %rdx
.LBE174:
.LBE173:
.LBE172:
	.loc 2 44 5 view .LVU45
	movq	%rcx, 96(%rsp)
.LBB309:
.LBB177:
.LBB175:
	.loc 3 476 28 view .LVU46
	js	.L20
	pxor	%xmm0, %xmm0
	cvtsi2sdq	%rdx, %xmm0
.LVL22:
.L21:
	.loc 3 476 28 view .LVU47
	pxor	%xmm1, %xmm1
	ucomisd	%xmm0, %xmm1
	sqrtsd	%xmm0, %xmm6
	ja	.L118
.LVL23:
.L22:
	.loc 3 476 28 view .LVU48
.LBE175:
.LBE177:
	.loc 2 45 14 view .LVU49
	movsd	.LC1(%rip), %xmm7
	comisd	%xmm7, %xmm6
	jnb	.L23
	cvttsd2siq	%xmm6, %rax
	movq	%rax, 88(%rsp)
.L24:
.LVL24:
	.loc 2 46 9 is_stmt 1 view .LVU50
.LBB178:
.LBI178:
	.file 4 "C:/Users/Saha2/Desktop/Code-Samples/C++/DortyLibs/prime/Adler_Sieve.h"
	.loc 4 27 5 view .LVU51
.LBB179:
	.loc 4 28 9 is_stmt 0 view .LVU52
	testq	%rax, %rax
	je	.L76
	.loc 4 28 20 view .LVU53
	subq	$1, %rax
	.loc 4 28 9 view .LVU54
	shrq	%rax
	orq	$63, %rax
	movq	%rax, %rcx
	movq	%rax, 104(%rsp)
	shrq	$3, %rcx
	addq	$1, %rcx
	movq	%rcx, %rax
	shrq	$3, %rax
	movq	%rax, 40(%rsp)
.L25:
.LVL25:
	.loc 4 32 37 view .LVU55
	call	malloc
.LVL26:
.LBB180:
	.loc 4 36 30 view .LVU56
	movl	$3, %r9d
	.loc 4 36 23 view .LVU57
	movl	$1, %edx
	.loc 4 36 37 view .LVU58
	movl	$1, %r8d
.LBE180:
	.loc 4 32 37 view .LVU59
	movq	%rax, %r15
	.loc 4 35 9 view .LVU60
	movq	$-2, %rax
.LBB192:
.LBB181:
.LBB182:
.LBB183:
.LBB184:
	.loc 4 22 46 view .LVU61
	movl	$1, %r10d
.LBE184:
.LBE183:
.LBE182:
.LBE181:
.LBE192:
	.loc 4 35 9 view .LVU62
	movq	%rax, (%r15)
.LVL27:
	.loc 4 35 9 view .LVU63
	jmp	.L29
.LVL28:
	.p2align 4,,10
.L26:
.LBB193:
	.loc 4 36 9 view .LVU64
	addl	$1, %edx
.LVL29:
	.loc 4 36 9 view .LVU65
	addl	$2, %r9d
.LVL30:
	.loc 4 36 9 view .LVU66
	addl	%edx, %r8d
.LVL31:
	.loc 4 36 46 view .LVU67
	cmpl	$15, %r8d
	ja	.L28
.L119:
	.loc 4 36 46 view .LVU68
	movl	%edx, %eax
	shrq	$6, %rax
	movq	(%r15,%rax,8), %rax
.LVL32:
.L29:
.LBB191:
.LBB189:
.LBI189:
	.loc 4 17 28 is_stmt 1 view .LVU69
	.loc 4 17 28 is_stmt 0 view .LVU70
.LBE189:
	.loc 4 38 13 view .LVU71
	btq	%rdx, %rax
	jnc	.L26
	.loc 4 38 13 view .LVU72
	movq	(%r15), %r11
.LBB190:
	.loc 4 39 31 view .LVU73
	leal	0(,%r8,4), %ecx
.LVL33:
	.p2align 4,,10
.L27:
.LBB187:
.LBI183:
	.loc 4 21 24 is_stmt 1 view .LVU74
.LBB185:
	.loc 4 22 46 is_stmt 0 view .LVU75
	movq	%r10, %rax
	salq	%cl, %rax
.LBE185:
.LBE187:
	.loc 4 39 17 view .LVU76
	addl	%r9d, %ecx
.LVL34:
.LBB188:
.LBB186:
	.loc 4 22 27 view .LVU77
	notq	%rax
	andq	%rax, %r11
.LVL35:
	.loc 4 22 27 view .LVU78
.LBE186:
.LBE188:
	.loc 4 39 51 view .LVU79
	cmpl	$63, %ecx
	jbe	.L27
.LBE190:
.LBE191:
	.loc 4 36 9 view .LVU80
	addl	$1, %edx
.LVL36:
	.loc 4 36 9 view .LVU81
	addl	$2, %r9d
.LVL37:
	.loc 4 36 9 view .LVU82
	movq	%r11, (%r15)
	addl	%edx, %r8d
.LVL38:
	.loc 4 36 46 view .LVU83
	cmpl	$15, %r8d
	jbe	.L119
.LVL39:
.L28:
	.loc 4 36 46 view .LVU84
.LBE193:
	.loc 4 43 9 view .LVU85
	cmpq	$1, 40(%rsp)
	je	.L30
.LBB194:
.LBB195:
.LBB196:
	.loc 4 18 20 view .LVU86
	movq	(%r15), %rdi
.LBE196:
.LBE195:
.LBE194:
	.loc 4 48 18 view .LVU87
	xorl	%r8d, %r8d
.LVL40:
.LBB198:
	.loc 4 49 23 view .LVU88
	movl	$1, %eax
	.p2align 4,,10
.L32:
.LVL41:
.LBB197:
.LBI195:
	.loc 4 17 28 is_stmt 1 view .LVU89
	.loc 4 17 28 is_stmt 0 view .LVU90
.LBE197:
	.loc 4 50 13 view .LVU91
	btq	%rax, %rdi
	jnc	.L31
	.loc 4 51 17 view .LVU92
	leal	1(%r8,%rax,2), %r8d
.LVL42:
.L31:
	.loc 4 49 9 view .LVU93
	addl	$1, %eax
.LVL43:
	.loc 4 49 32 view .LVU94
	cmpl	$64, %eax
	jne	.L32
.LVL44:
	.loc 4 49 32 view .LVU95
.LBE198:
	.loc 4 52 9 view .LVU96
	leal	0(,%r8,8), %ebx
.LBB199:
.LBB200:
.LBB201:
.LBB202:
.LBB203:
	.loc 4 22 46 view .LVU97
	movl	$1, %ebp
.LBE203:
.LBE202:
.LBE201:
.LBE200:
.LBE199:
	.loc 4 53 48 view .LVU98
	movq	%rbx, %rcx
	call	malloc
.LVL45:
	.loc 4 55 15 view .LVU99
	movq	%rbx, %r8
	movl	$-1, %edx
.LBB215:
	.loc 4 60 37 view .LVU100
	xorl	%ebx, %ebx
.LBE215:
	.loc 4 55 15 view .LVU101
	movq	%rax, %rcx
	.loc 4 53 48 view .LVU102
	movq	%rax, %r14
.LVL46:
	.loc 4 55 15 view .LVU103
	call	memset
.LVL47:
.LBB216:
.LBB212:
.LBB208:
	.loc 4 64 39 view .LVU104
	movq	40(%rsp), %rax
.LBE208:
.LBE212:
.LBE216:
	.loc 4 55 15 view .LVU105
	movl	$3, %r8d
	movl	$129, %r9d
.LBB217:
	.loc 4 60 23 view .LVU106
	movl	$1, %r11d
.LBB213:
.LBB209:
	.loc 4 64 39 view .LVU107
	leaq	-1(%rax), %rsi
	jmp	.L37
.LVL48:
	.p2align 4,,10
.L33:
	.loc 4 64 39 view .LVU108
	addq	$2, %r8
.LVL49:
	.loc 4 64 39 view .LVU109
.LBE209:
.LBE213:
	.loc 4 60 9 view .LVU110
	addl	$1, %r11d
.LVL50:
	.loc 4 60 9 view .LVU111
	addl	$129, %r9d
	.loc 4 60 48 view .LVU112
	cmpq	$129, %r8
	je	.L120
.LVL51:
.L37:
.LBB214:
	.loc 4 62 13 view .LVU113
	btq	%r11, %rdi
	movl	%r8d, %r10d
.LVL52:
.LBB210:
.LBI210:
	.loc 4 17 28 is_stmt 1 view .LVU114
	.loc 4 17 28 is_stmt 0 view .LVU115
.LBE210:
	.loc 4 62 13 view .LVU116
	jnc	.L33
.LBB211:
	.loc 4 63 24 view .LVU117
	xorl	%edx, %edx
	movl	%r9d, %eax
	movl	%ebx, %r12d
	divl	%r8d
	.loc 4 65 56 view .LVU118
	cmpq	%r8, %rsi
	movq	%r8, %rax
	cmovbe	%rsi, %rax
	.loc 4 64 24 view .LVU119
	salq	$6, %rax
	.loc 4 66 29 view .LVU120
	cmpq	%rax, %rdx
	.loc 4 63 24 view .LVU121
	movq	%rdx, %rcx
.LVL53:
	.loc 4 66 29 view .LVU122
	jnb	.L35
.LVL54:
	.p2align 4,,10
.L36:
.LBB206:
.LBI202:
	.loc 4 21 24 is_stmt 1 view .LVU123
.LBB204:
	.loc 4 22 27 is_stmt 0 view .LVU124
	movq	%rcx, %rdx
	.loc 4 22 46 view .LVU125
	movq	%rbp, %r13
	.loc 4 22 27 view .LVU126
	shrq	$6, %rdx
	.loc 4 22 46 view .LVU127
	salq	%cl, %r13
.LBE204:
.LBE206:
	.loc 4 66 17 view .LVU128
	addq	%r8, %rcx
.LVL55:
.LBB207:
.LBB205:
	.loc 4 22 27 view .LVU129
	addq	%r12, %rdx
	notq	%r13
	andq	%r13, (%r14,%rdx,8)
.LVL56:
	.loc 4 22 27 view .LVU130
.LBE205:
.LBE207:
	.loc 4 66 29 view .LVU131
	cmpq	%rcx, %rax
	ja	.L36
.L35:
	.loc 4 69 17 view .LVU132
	addl	%r10d, %ebx
.LVL57:
	.loc 4 69 17 view .LVU133
	jmp	.L33
.LVL58:
	.p2align 4,,10
.L59:
	.loc 4 69 17 view .LVU134
	addq	$524288, %r9
.LVL59:
	.loc 4 69 17 view .LVU135
.LBE211:
.LBE214:
.LBE217:
.LBB218:
	.loc 4 120 30 view .LVU136
	cmpq	%rdi, %r9
	jbe	.L56
.LVL60:
.L30:
	.loc 4 120 30 view .LVU137
.LBE218:
.LBE179:
.LBE178:
	.loc 2 47 9 is_stmt 1 view .LVU138
.LBB249:
.LBI249:
	.file 5 "C:/Users/Saha2/Desktop/Code-Samples/C++/DortyLibs/prime/pi_upper_bound.h"
	.loc 5 3 13 view .LVU139
.LBB250:
	.loc 5 4 14 is_stmt 0 view .LVU140
	movq	88(%rsp), %rax
	testq	%rax, %rax
	js	.L64
	pxor	%xmm6, %xmm6
	cvtsi2sdq	%rax, %xmm6
.L65:
.LVL61:
.LBB251:
.LBI251:
	.loc 3 350 5 is_stmt 1 view .LVU141
.LBB252:
	.loc 3 351 27 is_stmt 0 view .LVU142
	movapd	%xmm6, %xmm0
	call	log
.LVL62:
	movapd	%xmm0, %xmm8
.LVL63:
	.loc 3 351 27 view .LVU143
.LBE252:
.LBE251:
.LBB253:
.LBI253:
	.loc 3 350 5 is_stmt 1 view .LVU144
.LBB254:
	.loc 3 351 27 is_stmt 0 view .LVU145
	movapd	%xmm6, %xmm0
	call	log
.LVL64:
	.loc 3 351 27 view .LVU146
.LBE254:
.LBE253:
	.loc 5 4 37 view .LVU147
	movsd	.LC2(%rip), %xmm1
	.loc 5 4 14 view .LVU148
	divsd	%xmm8, %xmm6
	.loc 5 4 37 view .LVU149
	divsd	%xmm0, %xmm1
	.loc 5 4 28 view .LVU150
	movsd	.LC3(%rip), %xmm0
	addsd	%xmm1, %xmm0
	.loc 5 4 23 view .LVU151
	mulsd	%xmm6, %xmm0
	.loc 5 4 45 view .LVU152
	comisd	%xmm7, %xmm0
	jnb	.L66
	cvttsd2siq	%xmm0, %rax
.LVL65:
	.loc 5 4 45 view .LVU153
.LBE250:
.LBE249:
	.loc 2 47 50 view .LVU154
	movabsq	$768614336404564650, %rdx
	cmpq	%rdx, %rax
	ja	.L68
.L124:
	.loc 2 47 50 discriminator 2 view .LVU155
	leaq	(%rax,%rax,2), %rcx
	salq	$2, %rcx
.LEHB0:
	call	_Znay
.LVL66:
	movq	%rax, %rbx
.LBB257:
	.loc 2 49 29 discriminator 2 view .LVU156
	cmpq	$2, 88(%rsp)
	.loc 2 49 20 discriminator 2 view .LVU157
	movl	$3, %r8d
.LBB258:
.LBB259:
.LBB260:
.LBB261:
.LBB262:
.LBB263:
	.file 6 "C:/Users/Saha2/Desktop/Code-Samples/C++/DortyLibs/modular/binary_inverse.h"
	.loc 6 7 18 discriminator 2 view .LVU158
	movl	$2, %r10d
.LBE263:
.LBE262:
.LBE261:
.LBE260:
.LBE259:
.LBE258:
.LBE257:
	.loc 2 47 16 discriminator 2 view .LVU159
	movq	96(%rsp), %rax
.LBB296:
.LBB285:
.LBB279:
.LBB273:
	.file 7 "C:/Users/Saha2/Desktop/Code-Samples/C++/DortyLibs/fast_calculations/fast_divisibility.h"
	.loc 7 10 23 discriminator 2 view .LVU160
	movl	$-1, %r11d
	movq	88(%rsp), %rsi
.LBE273:
.LBE279:
.LBE285:
.LBE296:
	.loc 2 47 16 discriminator 2 view .LVU161
	movq	%rbx, (%rax)
	.loc 2 48 9 is_stmt 1 discriminator 2 view .LVU162
	movq	%rax, %rdi
	.loc 2 48 11 is_stmt 0 discriminator 2 view .LVU163
	movq	$0, 8(%rax)
	.loc 2 49 9 is_stmt 1 discriminator 2 view .LVU164
.LVL67:
.LBB297:
	.loc 2 49 29 is_stmt 0 discriminator 2 view .LVU165
	ja	.L70
	jmp	.L74
.LVL68:
	.p2align 4,,10
.L71:
.LBB286:
.LBB287:
	.loc 4 166 9 view .LVU166
	testb	$1, %r8b
	je	.L73
.LVL69:
	.loc 4 168 26 view .LVU167
	movl	%r8d, %eax
	.loc 4 167 9 view .LVU168
	movl	%r8d, %ecx
	.loc 4 168 26 view .LVU169
	sarl	$7, %eax
	.loc 4 167 9 view .LVU170
	sarl	%ecx
.LVL70:
	.loc 4 168 26 view .LVU171
	cltq
	.loc 4 168 72 view .LVU172
	movq	(%r15,%rax,8), %rax
	shrq	%cl, %rax
	andl	$1, %eax
.LVL71:
	.loc 4 168 72 view .LVU173
.LBE287:
.LBE286:
	.loc 2 50 13 view .LVU174
	testb	%al, %al
	jne	.L121
.L73:
	.loc 2 49 9 discriminator 2 view .LVU175
	addq	$1, %r8
.LVL72:
	.loc 2 49 29 discriminator 2 view .LVU176
	cmpq	%r8, %rsi
	jb	.L74
.LVL73:
.L70:
	.loc 2 50 13 is_stmt 1 view .LVU177
.LBB290:
.LBB288:
	.loc 4 165 9 is_stmt 0 view .LVU178
	cmpl	$2, %r8d
	movl	%r8d, %r9d
.LVL74:
	.loc 4 165 9 view .LVU179
.LBE288:
.LBI286:
	.loc 4 164 10 is_stmt 1 view .LVU180
.LBB289:
	.loc 4 165 9 is_stmt 0 view .LVU181
	jg	.L71
	.loc 4 165 36 view .LVU182
	sete	%al
.LVL75:
	.loc 4 165 36 view .LVU183
.LBE289:
.LBE290:
	.loc 2 50 13 view .LVU184
	testb	%al, %al
	je	.L73
.L121:
	.loc 2 51 17 is_stmt 1 view .LVU185
.LVL76:
.LBB291:
.LBI258:
	.loc 2 34 5 view .LVU186
.LBB280:
.LBI259:
	.loc 7 9 5 view .LVU187
.LBB274:
.LBB270:
.LBI261:
	.loc 6 3 3 view .LVU188
.LBB267:
.LBB264:
	.loc 6 7 22 is_stmt 0 view .LVU189
	movl	%r9d, %eax
	.loc 6 7 18 view .LVU190
	movl	%r10d, %edx
	movl	%r10d, %ecx
	.loc 6 7 22 view .LVU191
	imull	%r9d, %eax
	.loc 6 7 18 view .LVU192
	movl	%r10d, %ebp
.LBE264:
.LBE267:
.LBE270:
.LBE274:
.LBE280:
.LBE291:
	.loc 2 49 9 view .LVU193
	addq	$1, %r8
.LVL77:
.LBB292:
.LBB281:
.LBB275:
.LBB271:
.LBB268:
.LBB265:
	.loc 6 7 18 view .LVU194
	subl	%eax, %edx
	movl	%edx, %eax
	.loc 6 7 9 view .LVU195
	imull	%r9d, %eax
	movl	%eax, %edx
.LVL78:
	.loc 6 7 22 view .LVU196
	imull	%r9d, %eax
.LVL79:
	.loc 6 7 18 view .LVU197
	subl	%eax, %ecx
	movl	%ecx, %eax
	movl	%r10d, %ecx
	.loc 6 7 9 view .LVU198
	imull	%edx, %eax
.LVL80:
	.loc 6 7 22 view .LVU199
	movl	%eax, %edx
	imull	%r9d, %edx
	.loc 6 7 18 view .LVU200
	subl	%edx, %ecx
	.loc 6 7 9 view .LVU201
	imull	%ecx, %eax
.LVL81:
	.loc 6 7 18 view .LVU202
	movl	%r10d, %ecx
	.loc 6 7 22 view .LVU203
	movl	%eax, %edx
	imull	%r9d, %edx
	.loc 6 7 18 view .LVU204
	subl	%edx, %ecx
	.loc 6 7 9 view .LVU205
	imull	%ecx, %eax
.LVL82:
	.loc 6 7 22 view .LVU206
	movl	%eax, %edx
	imull	%r9d, %edx
	.loc 6 7 18 view .LVU207
	subl	%edx, %ebp
.LVL83:
	.loc 6 7 18 view .LVU208
.LBE265:
.LBE268:
.LBE271:
.LBE275:
.LBE281:
.LBE292:
	.loc 2 51 24 view .LVU209
	movq	8(%rdi), %rdx
.LBB293:
.LBB282:
.LBB276:
.LBB272:
.LBB269:
.LBB266:
	.loc 6 7 9 view .LVU210
	imull	%ebp, %eax
.LBE266:
.LBE269:
.LBE272:
.LBE276:
.LBE282:
.LBE293:
	.loc 2 51 25 view .LVU211
	leaq	1(%rdx), %rcx
	.loc 2 51 29 view .LVU212
	leaq	(%rdx,%rdx,2), %rdx
	.loc 2 51 25 view .LVU213
	movq	%rcx, 8(%rdi)
	.loc 2 51 29 view .LVU214
	leaq	(%rbx,%rdx,4), %rcx
.LBB294:
.LBB283:
.LBB277:
	.loc 7 10 23 view .LVU215
	xorl	%edx, %edx
.LBE277:
.LBE283:
.LBE294:
	.loc 2 51 29 view .LVU216
	movl	%eax, (%rcx)
.LBB295:
.LBB284:
.LBB278:
	.loc 7 10 23 view .LVU217
	movl	%r11d, %eax
	divl	%r9d
.LBE278:
.LBE284:
.LBE295:
	.loc 2 49 29 view .LVU218
	cmpq	%r8, %rsi
	.loc 2 51 29 view .LVU219
	movl	%r9d, 8(%rcx)
	movl	%eax, 4(%rcx)
	.loc 2 49 29 view .LVU220
	jnb	.L70
.LVL84:
.L74:
	.loc 2 49 29 view .LVU221
.LBE297:
.LBB298:
.LBI298:
	.loc 4 171 5 is_stmt 1 view .LVU222
.LBE298:
.LBE309:
	.loc 2 55 5 is_stmt 0 view .LVU223
	movaps	112(%rsp), %xmm6
.LBB310:
.LBB301:
.LBB299:
	.loc 4 172 13 view .LVU224
	movq	%r15, %rcx
.LBE299:
.LBE301:
.LBE310:
	.loc 2 55 5 view .LVU225
	movaps	128(%rsp), %xmm7
	movaps	144(%rsp), %xmm8
	addq	$168, %rsp
	.cfi_remember_state
	.cfi_restore 25
	.cfi_restore 24
	.cfi_restore 23
	.cfi_def_cfa_offset 72
	popq	%rbx
	.cfi_restore 3
	.cfi_def_cfa_offset 64
	popq	%rsi
	.cfi_restore 4
	.cfi_def_cfa_offset 56
	popq	%rdi
	.cfi_restore 5
	.cfi_def_cfa_offset 48
	popq	%rbp
	.cfi_restore 6
	.cfi_def_cfa_offset 40
	popq	%r12
	.cfi_restore 12
	.cfi_def_cfa_offset 32
	popq	%r13
	.cfi_restore 13
	.cfi_def_cfa_offset 24
	popq	%r14
	.cfi_restore 14
	.cfi_def_cfa_offset 16
	popq	%r15
	.cfi_restore 15
	.cfi_def_cfa_offset 8
.LBB311:
.LBB302:
.LBB300:
	.loc 4 172 13 view .LVU226
	jmp	free
.LVL85:
	.p2align 4,,10
.L120:
	.cfi_restore_state
	.loc 4 172 13 view .LVU227
.LBE300:
.LBE302:
.LBB303:
.LBB248:
	.loc 4 77 16 view .LVU228
	movl	$1, %r12d
	movq	%r12, %rdi
.LVL86:
	.p2align 4,,10
.L55:
.LBB235:
	.loc 4 81 20 view .LVU229
	leaq	4096(%rdi), %rbx
.LVL87:
	.loc 4 82 13 view .LVU230
	cmpq	40(%rsp), %rbx
	movl	$32768, %r8d
	jbe	.L38
	movq	40(%rsp), %rbx
.LVL88:
	.loc 4 82 13 view .LVU231
	movq	%rbx, %r8
	subq	%rdi, %r8
	salq	$3, %r8
.L38:
.LVL89:
	.loc 4 85 26 view .LVU232
	leaq	(%r15,%rdi,8), %rcx
	.loc 4 85 19 view .LVU233
	movl	$-1, %edx
.LBB236:
	.loc 4 91 41 view .LVU234
	xorl	%ebp, %ebp
.LBE236:
	.loc 4 85 19 view .LVU235
	call	memset
.LVL90:
	.loc 4 85 19 view .LVU236
	movq	%rdi, %rax
	movl	$3, %ecx
.LBB245:
.LBB237:
.LBB238:
	.loc 4 95 39 view .LVU237
	movl	%ebp, %r12d
	negq	%rax
.LBE238:
.LBE237:
	.loc 4 91 27 view .LVU238
	movl	$1, %r13d
.LBB243:
.LBB239:
	.loc 4 95 39 view .LVU239
	movq	%rdi, 80(%rsp)
	salq	$3, %rax
	movq	%rax, 64(%rsp)
	leaq	-1(%rdi), %rax
	movq	%rax, 72(%rsp)
	jmp	.L54
.LVL91:
	.p2align 4,,10
.L40:
	.loc 4 95 39 view .LVU240
	addq	$2, %rcx
.LVL92:
	.loc 4 95 39 view .LVU241
.LBE239:
.LBE243:
	.loc 4 91 13 view .LVU242
	addl	$1, %r13d
.LVL93:
	.loc 4 92 29 view .LVU243
	cmpq	$129, %rcx
	je	.L122
.LVL94:
.L54:
.LBB244:
.LBB240:
.LBB241:
	.loc 4 18 35 view .LVU244
	movq	(%r15), %rax
	movl	%ecx, 52(%rsp)
.LVL95:
	.loc 4 18 35 view .LVU245
.LBE241:
.LBI240:
	.loc 4 17 28 is_stmt 1 view .LVU246
	.loc 4 17 28 is_stmt 0 view .LVU247
.LBE240:
	.loc 4 93 17 view .LVU248
	btq	%r13, %rax
	jnc	.L40
.LVL96:
.LBB242:
	.loc 4 95 28 view .LVU249
	movq	72(%rsp), %rax
	xorl	%edx, %edx
	movl	%r12d, %r8d
	movq	64(%rsp), %rdi
	movq	80(%rsp), %rsi
	divq	%rcx
.LVL97:
	.loc 4 95 28 view .LVU250
	leaq	(%rdx,%r8), %rax
	leaq	(%rdi,%rax,8), %r9
	addq	%r14, %r9
	movq	%rsi, %rax
	subq	%rsi, %rdx
.LVL98:
	.loc 4 95 28 view .LVU251
	jmp	.L41
.LVL99:
	.p2align 4,,10
.L123:
	.loc 4 98 36 view .LVU252
	cmpq	%rax, %rbx
	jbe	.L82
.LVL100:
.L41:
	.loc 4 97 46 view .LVU253
	movq	(%r9,%rax,8), %r10
.LVL101:
	.loc 4 97 25 view .LVU254
	addq	$1, %rax
.LVL102:
	.loc 4 97 39 view .LVU255
	andq	%r10, -8(%r15,%rax,8)
	.loc 4 98 36 view .LVU256
	leaq	(%rdx,%rax), %r10
	cmpq	%rcx, %r10
	jb	.L123
.L82:
	.loc 4 100 32 view .LVU257
	movq	%rbx, %rdx
	subq	%rax, %rdx
	.loc 4 100 39 view .LVU258
	cmpq	%rcx, %rdx
	jb	.L47
	movq	%rcx, %rsi
	movq	%rbx, %r9
	movq	%rcx, %r11
	shrq	%rsi
	subq	%rcx, %r9
	andq	$-2, %r11
	leaq	0(,%rcx,8), %rdi
	salq	$4, %rsi
	subq	%rax, %r9
	movq	%rdi, 56(%rsp)
	leaq	(%r15,%rax,8), %r10
	leaq	(%r14,%r8,8), %rbp
	.loc 4 102 52 view .LVU259
	movq	%rsi, 32(%rsp)
	leaq	(%r11,%r8), %rdi
.LVL103:
	.p2align 4,,10
.L48:
	.loc 4 100 39 view .LVU260
	movq	32(%rsp), %rsi
	xorl	%edx, %edx
.L45:
	.loc 4 102 45 view .LVU261
	movdqu	(%r10,%rdx), %xmm2
	movdqu	0(%rbp,%rdx), %xmm0
	pand	%xmm2, %xmm0
	.loc 4 102 29 view .LVU262
	movups	%xmm0, (%r10,%rdx)
	.loc 4 102 29 view .LVU263
	addq	$16, %rdx
	cmpq	%rsi, %rdx
	jne	.L45
	cmpq	%r11, %rcx
	movq	%rsi, 32(%rsp)
	je	.L46
.LVL104:
	.loc 4 102 45 view .LVU264
	leaq	(%rax,%r11), %rdx
	movq	(%r14,%rdi,8), %rsi
	andq	%rsi, (%r15,%rdx,8)
.LVL105:
.L46:
	.loc 4 102 45 view .LVU265
	movq	%r9, %rdx
	.loc 4 104 25 view .LVU266
	addq	%rcx, %rax
.LVL106:
	.loc 4 104 25 view .LVU267
	addq	56(%rsp), %r10
	subq	%rcx, %rdx
	.loc 4 100 39 view .LVU268
	cmpq	%rcx, %r9
	jb	.L47
	movq	%rdx, %r9
	jmp	.L48
	.p2align 4,,10
.L47:
.LVL107:
	.loc 4 107 38 view .LVU269
	cmpq	%rbx, %rax
	jnb	.L52
	.loc 4 107 38 view .LVU270
	movq	%rbx, %r9
	subq	%rax, %r9
	cmpq	$1, %r9
	je	.L78
	leaq	(%r15,%rax,8), %r11
	movq	%r9, %r10
	xorl	%edx, %edx
	leaq	(%r14,%r8,8), %rsi
	shrq	%r10
	salq	$4, %r10
.LVL108:
	.p2align 4,,10
.L51:
	.loc 4 108 37 view .LVU271
	movdqu	(%r11,%rdx), %xmm3
	movdqu	(%rsi,%rdx), %xmm0
	pand	%xmm3, %xmm0
	.loc 4 108 25 view .LVU272
	movups	%xmm0, (%r11,%rdx)
	.loc 4 108 25 view .LVU273
	addq	$16, %rdx
	cmpq	%r10, %rdx
	jne	.L51
	movq	%r9, %rdx
	andq	$-2, %rdx
	addq	%rdx, %rax
	cmpq	%r9, %rdx
	je	.L52
.L49:
.LVL109:
	.loc 4 108 44 view .LVU274
	addq	%rdx, %r8
	.loc 4 108 37 view .LVU275
	movq	(%r14,%r8,8), %rdx
	andq	%rdx, (%r15,%rax,8)
.LVL110:
.L52:
	.loc 4 109 21 view .LVU276
	addl	52(%rsp), %r12d
.LVL111:
	.loc 4 109 21 view .LVU277
	jmp	.L40
.LVL112:
	.p2align 4,,10
.L78:
	.loc 4 107 28 view .LVU278
	xorl	%edx, %edx
	jmp	.L49
.LVL113:
	.p2align 4,,10
.L122:
	.loc 4 107 28 view .LVU279
.LBE242:
.LBE244:
.LBE245:
.LBE235:
	.loc 4 112 24 view .LVU280
	cmpq	40(%rsp), %rbx
	movq	%rbx, %rdi
	jb	.L55
	.loc 4 115 13 view .LVU281
	movq	%r14, %rcx
.LBB246:
.LBB219:
.LBB220:
.LBB221:
.LBB222:
.LBB223:
.LBB224:
	.loc 4 22 46 view .LVU282
	movl	$1, %esi
.LBE224:
.LBE223:
.LBE222:
.LBE221:
.LBE220:
.LBE219:
.LBE246:
	.loc 4 115 13 view .LVU283
	call	free
.LVL114:
	.loc 4 115 13 view .LVU284
	movq	104(%rsp), %rdi
	xorl	%r9d, %r9d
.LVL115:
	.p2align 4,,10
.L56:
	.loc 4 115 13 view .LVU285
	leaq	524287(%r9), %r10
.LVL116:
	.loc 4 115 13 view .LVU286
	movl	$193, %r11d
	movl	$129, %r8d
	cmpq	%rdi, %r10
.LBB247:
.LBB234:
.LBB233:
	.loc 4 127 28 view .LVU287
	movl	$64, %ecx
	cmova	%rdi, %r10
.LVL117:
	.p2align 4,,10
.L58:
.LBB232:
.LBB229:
.LBI229:
	.loc 4 17 28 is_stmt 1 view .LVU288
.LBB230:
	.loc 4 18 23 is_stmt 0 view .LVU289
	movq	%rcx, %rax
	leaq	1(%rcx), %rbx
	shrq	$6, %rax
	.loc 4 18 35 view .LVU290
	movq	(%r15,%rax,8), %rax
.LBE230:
.LBE229:
	.loc 4 128 17 view .LVU291
	btq	%rcx, %rax
	jnc	.L62
.LBB231:
	.loc 4 132 31 view .LVU292
	imulq	%rbx, %rcx
	addq	%rcx, %rcx
.LVL118:
	.loc 4 139 21 view .LVU293
	cmpq	%rcx, %r10
	jb	.L59
	.loc 4 145 21 view .LVU294
	cmpq	%rcx, %r9
	jbe	.L63
	.loc 4 146 46 view .LVU295
	xorl	%edx, %edx
	movq	%r9, %rax
	.loc 4 146 25 view .LVU296
	movq	%r11, %rcx
.LVL119:
	.loc 4 146 46 view .LVU297
	divq	%r8
	.loc 4 146 25 view .LVU298
	subq	%rdx, %rcx
.LVL120:
	.loc 4 147 40 view .LVU299
	movq	%rcx, %rax
	subq	%r8, %rax
	cmpq	%r8, %rcx
	cmovnb	%rax, %rcx
.LVL121:
	.loc 4 148 25 view .LVU300
	addq	%r9, %rcx
.LVL122:
	.loc 4 153 33 view .LVU301
	cmpq	%rcx, %r10
	jb	.L62
	.p2align 4,,10
.L63:
.LVL123:
.LBB227:
.LBI223:
	.loc 4 21 24 is_stmt 1 view .LVU302
.LBB225:
	.loc 4 22 27 is_stmt 0 view .LVU303
	movq	%rcx, %rdx
	.loc 4 22 46 view .LVU304
	movq	%rsi, %rax
	salq	%cl, %rax
	.loc 4 22 27 view .LVU305
	shrq	$6, %rdx
.LBE225:
.LBE227:
	.loc 4 153 21 view .LVU306
	addq	%r8, %rcx
.LVL124:
.LBB228:
.LBB226:
	.loc 4 22 27 view .LVU307
	notq	%rax
	andq	%rax, (%r15,%rdx,8)
.LVL125:
	.loc 4 22 27 view .LVU308
.LBE226:
.LBE228:
	.loc 4 153 33 view .LVU309
	cmpq	%rcx, %r10
	jnb	.L63
.LVL126:
.L62:
	.loc 4 153 33 view .LVU310
	addq	$2, %r8
	addq	$3, %r11
.LVL127:
	.loc 4 153 33 view .LVU311
.LBE231:
.LBE232:
	.loc 4 127 13 view .LVU312
	movq	%rbx, %rcx
	jmp	.L58
.LVL128:
	.p2align 4,,10
.L76:
	.loc 4 127 13 view .LVU313
.LBE233:
.LBE234:
.LBE247:
	.loc 4 28 9 view .LVU314
	movq	$1, 40(%rsp)
	movl	$8, %ecx
	movq	$63, 104(%rsp)
	jmp	.L25
.LVL129:
	.p2align 4,,10
.L23:
	.loc 4 28 9 view .LVU315
.LBE248:
.LBE303:
	.loc 2 45 14 view .LVU316
	subsd	%xmm7, %xmm6
	cvttsd2siq	%xmm6, %rax
	btcq	$63, %rax
	movq	%rax, 88(%rsp)
	jmp	.L24
.LVL130:
	.p2align 4,,10
.L66:
	.loc 2 47 50 view .LVU317
	movabsq	$768614336404564650, %rdx
.LBB304:
.LBB255:
	.loc 5 4 45 view .LVU318
	subsd	%xmm7, %xmm0
	cvttsd2siq	%xmm0, %rax
	btcq	$63, %rax
.LVL131:
	.loc 5 4 45 view .LVU319
.LBE255:
.LBE304:
	.loc 2 47 50 view .LVU320
	cmpq	%rdx, %rax
	jbe	.L124
.L68:
	.loc 2 47 50 discriminator 3 view .LVU321
	call	__cxa_throw_bad_array_new_length
.LVL132:
.LEHE0:
	.p2align 4,,10
.L64:
	.loc 2 47 50 discriminator 3 view .LVU322
	movq	%rax, %rdi
.LBB305:
.LBB256:
	.loc 5 4 14 view .LVU323
	shrq	%rax
	pxor	%xmm6, %xmm6
	andl	$1, %edi
	orq	%rdi, %rax
	cvtsi2sdq	%rax, %xmm6
	addsd	%xmm6, %xmm6
	jmp	.L65
.LVL133:
	.p2align 4,,10
.L20:
	.loc 5 4 14 view .LVU324
.LBE256:
.LBE305:
.LBB306:
.LBB176:
	.loc 3 476 28 view .LVU325
	movq	%rdx, %rax
	andl	$1, %edx
.LVL134:
	.loc 3 476 28 view .LVU326
	pxor	%xmm0, %xmm0
	shrq	%rax
.LVL135:
	.loc 3 476 28 view .LVU327
	orq	%rdx, %rax
	cvtsi2sdq	%rax, %xmm0
	addsd	%xmm0, %xmm0
	jmp	.L21
.L118:
	.loc 3 476 28 view .LVU328
	call	sqrt
.LVL136:
	.loc 3 476 28 view .LVU329
	jmp	.L22
.LVL137:
.L80:
	.loc 3 476 28 view .LVU330
	movq	%rax, %rbx
.LVL138:
	.loc 3 476 28 view .LVU331
.LBE176:
.LBE306:
.LBB307:
.LBI307:
	.loc 4 171 5 is_stmt 1 view .LVU332
.LBB308:
	.loc 4 172 13 is_stmt 0 view .LVU333
	movq	%r15, %rcx
	call	free
.LVL139:
	.loc 4 172 13 view .LVU334
	movq	%rbx, %rcx
.LEHB1:
	call	_Unwind_Resume
	nop
.LVL140:
.LEHE1:
.LBE308:
.LBE307:
.LBE311:
	.cfi_endproc
.LFE2344:
	.def	__gxx_personality_seh0;	.scl	2;	.type	32;	.endef
	.seh_handler	__gxx_personality_seh0, @unwind, @except
	.seh_handlerdata
.LLSDA2344:
	.byte	0xff
	.byte	0xff
	.byte	0x1
	.uleb128 .LLSDACSE2344-.LLSDACSB2344
.LLSDACSB2344:
	.uleb128 .LEHB0-.LFB2344
	.uleb128 .LEHE0-.LEHB0
	.uleb128 .L80-.LFB2344
	.uleb128 0
	.uleb128 .LEHB1-.LFB2344
	.uleb128 .LEHE1-.LEHB1
	.uleb128 0
	.uleb128 0
.LLSDACSE2344:
	.section	.text$_ZN15PrimeFactorizerC1Ey,"x"
	.linkonce discard
	.seh_endproc
	.def	__main;	.scl	2;	.type	32;	.endef
	.def	__udivti3;	.scl	2;	.type	32;	.endef
	.section	.text.startup,"x"
	.p2align 4,,15
	.globl	main
	.def	main;	.scl	2;	.type	32;	.endef
	.seh_proc	main
main:
.LFB2346:
	.loc 2 78 16 is_stmt 1 view -0
	.cfi_startproc
	pushq	%r15
	.seh_pushreg	%r15
	.cfi_def_cfa_offset 16
	.cfi_offset 15, -16
	pushq	%r14
	.seh_pushreg	%r14
	.cfi_def_cfa_offset 24
	.cfi_offset 14, -24
	pushq	%r13
	.seh_pushreg	%r13
	.cfi_def_cfa_offset 32
	.cfi_offset 13, -32
	pushq	%r12
	.seh_pushreg	%r12
	.cfi_def_cfa_offset 40
	.cfi_offset 12, -40
	pushq	%rbp
	.seh_pushreg	%rbp
	.cfi_def_cfa_offset 48
	.cfi_offset 6, -48
	pushq	%rdi
	.seh_pushreg	%rdi
	.cfi_def_cfa_offset 56
	.cfi_offset 5, -56
	pushq	%rsi
	.seh_pushreg	%rsi
	.cfi_def_cfa_offset 64
	.cfi_offset 4, -64
	pushq	%rbx
	.seh_pushreg	%rbx
	.cfi_def_cfa_offset 72
	.cfi_offset 3, -72
	subq	$168, %rsp
	.seh_stackalloc	168
	.cfi_def_cfa_offset 240
	.seh_endprologue
.LBB337:
.LBB338:
.LBB339:
.LBB340:
.LBB341:
	.file 8 "C:/Users/Saha2/Desktop/Code-Samples/C++/DortyLibs/fast_calculations/fast_div.h"
	.loc 8 12 40 is_stmt 0 view .LVU336
	movabsq	$-9223372036854775808, %rdi
.LBE341:
.LBE340:
.LBE339:
.LBE338:
.LBE337:
	.loc 2 78 16 view .LVU337
	call	__main
.LVL141:
	.loc 2 80 5 is_stmt 1 view .LVU338
	.loc 2 80 42 is_stmt 0 view .LVU339
	leaq	144(%rsp), %rcx
	movl	$1000000000, %edx
	call	_ZN15PrimeFactorizerC1Ey
.LVL142:
	.loc 2 82 5 is_stmt 1 view .LVU340
	.loc 2 83 5 view .LVU341
	.loc 2 83 12 is_stmt 0 view .LVU342
	movq	.refptr._ZSt3cin(%rip), %rcx
	leaq	124(%rsp), %rdx
	call	_ZNSirsERi
.LVL143:
	.loc 2 83 17 view .LVU343
	leaq	128(%rsp), %rdx
	movq	%rax, %rcx
	call	_ZNSirsERi
.LVL144:
	.loc 2 83 23 view .LVU344
	leaq	132(%rsp), %rdx
	movq	%rax, %rcx
	call	_ZNSirsERi
.LVL145:
	.loc 2 83 28 view .LVU345
	leaq	136(%rsp), %rdx
	movq	%rax, %rcx
	call	_ZNSirsERi
.LVL146:
	.loc 2 83 33 view .LVU346
	leaq	140(%rsp), %rdx
	movq	%rax, %rcx
	call	_ZNSirsERi
.LVL147:
	.loc 2 84 5 is_stmt 1 view .LVU347
.LBB358:
.LBB354:
.LBB350:
.LBB346:
.LBB342:
	.loc 8 12 40 is_stmt 0 view .LVU348
	leaq	96(%rsp), %rcx
	movq	%rdi, 104(%rsp)
.LBE342:
.LBE346:
.LBE350:
.LBE354:
.LBE358:
	.loc 2 84 31 view .LVU349
	movslq	132(%rsp), %rsi
	movslq	136(%rsp), %rax
.LBB359:
.LBB355:
.LBB351:
.LBB347:
.LBB343:
	.loc 8 12 40 view .LVU350
	leaq	80(%rsp), %rdx
	movq	$0, 88(%rsp)
.LBE343:
.LBE347:
.LBE351:
.LBE355:
.LBE359:
	.loc 2 84 31 view .LVU351
	movslq	128(%rsp), %rbx
	movq	%rsi, 40(%rsp)
	movslq	124(%rsp), %rsi
	movq	%rax, 32(%rsp)
.LBB360:
.LBB356:
.LBB352:
.LBB348:
.LBB344:
	.loc 8 12 40 view .LVU352
	movq	%rax, 80(%rsp)
.LBE344:
.LBE348:
.LBE352:
.LBE356:
.LBE360:
	.loc 2 84 31 view .LVU353
	movq	%rsi, 64(%rsp)
.LVL148:
.LBB361:
.LBI337:
	.file 9 "C:/Users/Saha2/Desktop/Code-Samples/C++/DortyLibs/fast_calculations/LCM.h"
	.loc 9 7 5 is_stmt 1 view .LVU354
.LBB357:
.LBB353:
.LBI339:
	.file 10 "C:/Users/Saha2/Desktop/Code-Samples/C++/DortyLibs/fast_calculations/fast_mod.h"
	.loc 10 8 5 view .LVU355
.LBB349:
.LBI340:
	.loc 8 10 5 view .LVU356
.LBB345:
	.loc 8 12 40 is_stmt 0 view .LVU357
	xorl	%esi, %esi
.LVL149:
	.loc 8 12 40 view .LVU358
	movq	%rsi, 96(%rsp)
	call	__udivti3
.LVL150:
	.loc 8 11 9 view .LVU359
	movl	$127, %ecx
	.loc 8 12 40 view .LVU360
	movaps	%xmm0, 48(%rsp)
	movq	56(%rsp), %r14
	movq	48(%rsp), %r13
.LVL151:
	.loc 8 14 24 view .LVU361
	testq	%r14, %r14
	je	.L126
	movq	$-1, %r9
	xorl	%r8d, %r8d
.LVL152:
	.p2align 4,,10
.L127:
	.loc 8 15 22 view .LVU362
	shrdq	$1, %r14, %r13
.LVL153:
	.loc 8 15 28 view .LVU363
	subl	$1, %ecx
.LVL154:
	.loc 8 15 22 view .LVU364
	shrq	%r14
.LVL155:
	.loc 8 14 24 view .LVU365
	movq	%r8, %rax
	cmpq	%r13, %r9
	sbbq	%r14, %rax
	jc	.L127
.LVL156:
.L126:
	.loc 8 18 28 view .LVU366
	addq	$1, %r13
.LVL157:
	.loc 8 18 28 view .LVU367
	adcq	$0, %r14
.LVL158:
	.loc 8 18 9 view .LVU368
	testb	$1, %r13b
	jne	.L128
	.loc 8 18 43 view .LVU369
	shrdq	$1, %r14, %r13
.LVL159:
	.loc 8 18 50 view .LVU370
	subl	$1, %ecx
.LVL160:
	.loc 8 18 43 view .LVU371
	shrq	%r14
.LVL161:
.L128:
	.loc 8 18 43 view .LVU372
.LBE345:
.LBE349:
.LBE353:
.LBE357:
.LBE361:
	.loc 2 85 5 is_stmt 1 view .LVU373
	.loc 2 88 5 view .LVU374
.LBB362:
	.loc 2 88 21 is_stmt 0 view .LVU375
	movl	140(%rsp), %eax
	testl	%eax, %eax
	movl	%eax, 48(%rsp)
	jle	.L142
.LBB363:
.LBB364:
.LBB365:
.LBB366:
.LBB367:
	.loc 2 65 21 view .LVU376
	movq	144(%rsp), %rax
	movzbl	%cl, %ecx
	.loc 2 65 21 view .LVU377
.LBE367:
.LBE366:
.LBE365:
.LBE364:
.LBE363:
	.loc 2 88 13 view .LVU378
	xorl	%edi, %edi
.LBE362:
	.loc 2 85 14 view .LVU379
	xorl	%r12d, %r12d
.LBB403:
.LBB389:
.LBB385:
.LBB381:
.LBB377:
.LBB372:
	.loc 2 64 31 view .LVU380
	movq	152(%rsp), %rbp
	.loc 2 65 21 view .LVU381
	movq	%rax, 72(%rsp)
.LVL162:
	.p2align 4,,10
.L140:
	.loc 2 65 21 view .LVU382
.LBE372:
.LBE377:
.LBE381:
.LBE385:
.LBE389:
	.loc 2 89 9 is_stmt 1 view .LVU383
.LBB390:
.LBI390:
	.loc 9 9 38 view .LVU384
.LBB391:
	.loc 9 10 33 is_stmt 0 view .LVU385
	imulq	64(%rsp), %rbx
.LBB392:
.LBB393:
.LBB394:
.LBB395:
	.loc 8 23 30 view .LVU386
	movq	%r14, %r8
.LBE395:
.LBE394:
.LBE393:
.LBE392:
	.loc 9 10 44 view .LVU387
	addq	40(%rsp), %rbx
.LVL163:
.LBB399:
.LBI392:
	.loc 10 9 45 is_stmt 1 view .LVU388
.LBB398:
.LBB397:
.LBI394:
	.loc 8 22 45 view .LVU389
.LBB396:
	.loc 8 23 30 is_stmt 0 view .LVU390
	imulq	%rbx, %r8
	movq	%rbx, %rax
	mulq	%r13
	movq	%rdx, %r11
	addq	%r8, %r11
	.loc 8 23 37 view .LVU391
	movq	%r11, %rdx
	shrdq	%cl, %r11, %rax
	shrq	%cl, %rdx
	testb	$64, %cl
	cmovne	%rdx, %rax
.LBE396:
.LBE397:
	.loc 10 10 29 view .LVU392
	imulq	32(%rsp), %rax
	.loc 10 10 34 view .LVU393
	subq	%rax, %rbx
.LVL164:
	.loc 10 10 34 view .LVU394
.LBE398:
.LBE399:
.LBE391:
.LBE390:
.LBB400:
.LBI363:
	.loc 2 57 12 is_stmt 1 view .LVU395
.LBB386:
	.loc 2 58 9 view .LVU396
	cmpq	$1, %rbx
	jbe	.L130
.LVL165:
.LBB382:
.LBB378:
	.loc 2 60 9 view .LVU397
	.loc 2 60 28 is_stmt 0 view .LVU398
	testb	$1, %bl
	jne	.L131
	movq	%rbx, %rax
	.loc 2 59 16 view .LVU399
	xorl	%r9d, %r9d
.LVL166:
	.p2align 4,,10
.L132:
	.loc 2 60 35 is_stmt 1 view .LVU400
	.loc 2 60 52 is_stmt 0 view .LVU401
	shrq	%rax
.LVL167:
	.loc 2 60 39 view .LVU402
	addq	$2, %r9
.LVL168:
	.loc 2 60 45 is_stmt 1 view .LVU403
	.loc 2 60 9 view .LVU404
	.loc 2 60 28 is_stmt 0 view .LVU405
	testb	$1, %al
	je	.L132
.LVL169:
.LBB373:
	.loc 2 64 29 view .LVU406
	testq	%rbp, %rbp
	je	.L133
.LVL170:
.L134:
	.loc 2 64 29 view .LVU407
	movq	72(%rsp), %r8
.LBE373:
	.loc 2 59 16 view .LVU408
	xorl	%r11d, %r11d
.LVL171:
	.p2align 4,,10
.L138:
.LBB374:
	.loc 2 65 13 is_stmt 1 view .LVU409
.LBB368:
.LBI368:
	.loc 7 13 51 view .LVU410
.LBB369:
	.loc 7 14 22 is_stmt 0 view .LVU411
	movl	(%r8), %esi
	.loc 7 14 34 view .LVU412
	movl	4(%r8), %r15d
.LVL172:
	.loc 7 14 21 view .LVU413
	movl	%esi, %edx
	imull	%eax, %edx
.LBE369:
.LBE368:
	.loc 2 65 36 view .LVU414
	cmpl	%edx, %r15d
	jb	.L136
	.loc 2 65 64 view .LVU415
	movl	8(%r8), %r10d
	.p2align 4,,10
.L137:
	.loc 2 65 47 is_stmt 1 view .LVU416
	.loc 2 65 76 is_stmt 0 view .LVU417
	xorl	%edx, %edx
	.loc 2 65 51 view .LVU418
	addq	%r10, %r9
.LVL173:
	.loc 2 65 69 is_stmt 1 view .LVU419
	.loc 2 65 76 is_stmt 0 view .LVU420
	divq	%r10
.LVL174:
	.loc 2 65 13 is_stmt 1 view .LVU421
.LBB371:
	.loc 7 13 51 view .LVU422
.LBB370:
	.loc 7 14 21 is_stmt 0 view .LVU423
	movl	%esi, %edx
	imull	%eax, %edx
.LBE370:
.LBE371:
	.loc 2 65 36 view .LVU424
	cmpl	%r15d, %edx
	jbe	.L137
.L136:
	.loc 2 64 9 view .LVU425
	addq	$1, %r11
.LVL175:
	.loc 2 64 9 view .LVU426
	addq	$12, %r8
	.loc 2 64 29 view .LVU427
	cmpq	%rbp, %r11
	jb	.L138
.LVL176:
.L133:
	.loc 2 64 29 view .LVU428
.LBE374:
	.loc 2 68 9 is_stmt 1 view .LVU429
	cmpq	$1, %rax
	je	.L152
.LVL177:
.L139:
	.loc 2 68 26 view .LVU430
	.loc 2 68 30 is_stmt 0 view .LVU431
	addq	%rax, %r9
.LVL178:
.L152:
	.loc 2 68 30 view .LVU432
	addq	%r9, %r12
.LVL179:
.L130:
	.loc 2 68 30 view .LVU433
.LBE378:
.LBE382:
.LBE386:
.LBE400:
	.loc 2 88 5 view .LVU434
	addl	$1, %edi
.LVL180:
	.loc 2 88 21 view .LVU435
	cmpl	48(%rsp), %edi
	jne	.L140
.LVL181:
.L129:
	.loc 2 88 21 view .LVU436
.LBE403:
	.loc 2 91 5 is_stmt 1 view .LVU437
.LBB404:
.LBI404:
	.file 11 "C:/Program Files/CodeBlocks/MinGW/lib/gcc/x86_64-w64-mingw32/8.1.0/include/c++/ostream"
	.loc 11 205 7 view .LVU438
.LBB405:
	.loc 11 206 29 is_stmt 0 view .LVU439
	movq	.refptr._ZSt4cout(%rip), %rcx
	movq	%r12, %rdx
	call	_ZNSo9_M_insertIyEERSoT_
.LVL182:
	.loc 11 206 29 view .LVU440
.LBE405:
.LBE404:
	.loc 2 96 5 is_stmt 1 view .LVU441
	.loc 2 97 1 is_stmt 0 view .LVU442
	xorl	%eax, %eax
	addq	$168, %rsp
	.cfi_remember_state
	.cfi_def_cfa_offset 72
	popq	%rbx
	.cfi_restore 3
	.cfi_def_cfa_offset 64
	popq	%rsi
	.cfi_restore 4
	.cfi_def_cfa_offset 56
	popq	%rdi
	.cfi_restore 5
	.cfi_def_cfa_offset 48
	popq	%rbp
	.cfi_restore 6
	.cfi_def_cfa_offset 40
	popq	%r12
	.cfi_restore 12
	.cfi_def_cfa_offset 32
	popq	%r13
	.cfi_restore 13
	.cfi_def_cfa_offset 24
.LVL183:
	.loc 2 97 1 view .LVU443
	popq	%r14
	.cfi_restore 14
	.cfi_def_cfa_offset 16
	popq	%r15
	.cfi_restore 15
	.cfi_def_cfa_offset 8
	ret
.LVL184:
.L131:
	.cfi_restore_state
.LBB406:
.LBB401:
.LBB387:
.LBB383:
.LBB379:
.LBB375:
	.loc 2 64 29 view .LVU444
	testq	%rbp, %rbp
	je	.L143
	movq	%rbx, %rax
.LBE375:
	.loc 2 59 16 view .LVU445
	xorl	%r9d, %r9d
	jmp	.L134
.LVL185:
.L142:
	.loc 2 59 16 view .LVU446
.LBE379:
.LBE383:
.LBE387:
.LBE401:
.LBE406:
	.loc 2 85 14 view .LVU447
	xorl	%r12d, %r12d
	jmp	.L129
.LVL186:
.L143:
.LBB407:
.LBB402:
.LBB388:
.LBB384:
.LBB380:
	.loc 2 59 16 view .LVU448
	xorl	%r9d, %r9d
.LBB376:
	.loc 2 64 29 view .LVU449
	movq	%rbx, %rax
	jmp	.L139
.LBE376:
.LBE380:
.LBE384:
.LBE388:
.LBE402:
.LBE407:
	.cfi_endproc
.LFE2346:
	.seh_endproc
	.p2align 4,,15
	.def	_GLOBAL__sub_I__Z9factorizei;	.scl	3;	.type	32;	.endef
	.seh_proc	_GLOBAL__sub_I__Z9factorizei
_GLOBAL__sub_I__Z9factorizei:
.LFB2977:
	.loc 2 97 1 is_stmt 1 view -0
	.cfi_startproc
	subq	$40, %rsp
	.seh_stackalloc	40
	.cfi_def_cfa_offset 48
	.seh_endprologue
.LVL187:
.LBB408:
.LBI408:
	.loc 2 97 1 view .LVU451
.LBB409:
	.loc 1 74 25 is_stmt 0 view .LVU452
	leaq	_ZStL8__ioinit(%rip), %rcx
	call	_ZNSt8ios_base4InitC1Ev
.LVL188:
	leaq	__tcf_0(%rip), %rcx
.LBE409:
.LBE408:
	.loc 2 97 1 view .LVU453
	addq	$40, %rsp
	.cfi_def_cfa_offset 8
.LBB411:
.LBB410:
	.loc 1 74 25 view .LVU454
	jmp	atexit
.LVL189:
.LBE410:
.LBE411:
	.cfi_endproc
.LFE2977:
	.seh_endproc
	.section	.ctors,"w"
	.align 8
	.quad	_GLOBAL__sub_I__Z9factorizei
.lcomm _ZStL8__ioinit,1,1
	.section .rdata,"dr"
	.align 8
.LC1:
	.long	0
	.long	1138753536
	.align 8
.LC2:
	.long	-1326285901
	.long	1072982864
	.align 8
.LC3:
	.long	0
	.long	1072693248
	.text
.Letext0:
	.file 12 "C:/Program Files/CodeBlocks/MinGW/lib/gcc/x86_64-w64-mingw32/8.1.0/include/c++/cwchar"
	.file 13 "C:/Program Files/CodeBlocks/MinGW/lib/gcc/x86_64-w64-mingw32/8.1.0/include/c++/new"
	.file 14 "C:/Program Files/CodeBlocks/MinGW/lib/gcc/x86_64-w64-mingw32/8.1.0/include/c++/bits/exception_ptr.h"
	.file 15 "C:/Program Files/CodeBlocks/MinGW/lib/gcc/x86_64-w64-mingw32/8.1.0/include/c++/type_traits"
	.file 16 "C:/Program Files/CodeBlocks/MinGW/lib/gcc/x86_64-w64-mingw32/8.1.0/include/c++/bits/stl_pair.h"
	.file 17 "C:/Program Files/CodeBlocks/MinGW/lib/gcc/x86_64-w64-mingw32/8.1.0/include/c++/debug/debug.h"
	.file 18 "C:/Program Files/CodeBlocks/MinGW/lib/gcc/x86_64-w64-mingw32/8.1.0/include/c++/bits/char_traits.h"
	.file 19 "C:/Program Files/CodeBlocks/MinGW/lib/gcc/x86_64-w64-mingw32/8.1.0/include/c++/x86_64-w64-mingw32/bits/c++config.h"
	.file 20 "C:/Program Files/CodeBlocks/MinGW/lib/gcc/x86_64-w64-mingw32/8.1.0/include/c++/cstdint"
	.file 21 "C:/Program Files/CodeBlocks/MinGW/lib/gcc/x86_64-w64-mingw32/8.1.0/include/c++/clocale"
	.file 22 "C:/Program Files/CodeBlocks/MinGW/lib/gcc/x86_64-w64-mingw32/8.1.0/include/c++/limits"
	.file 23 "C:/Program Files/CodeBlocks/MinGW/lib/gcc/x86_64-w64-mingw32/8.1.0/include/c++/string_view"
	.file 24 "C:/Program Files/CodeBlocks/MinGW/lib/gcc/x86_64-w64-mingw32/8.1.0/include/c++/bits/basic_string.h"
	.file 25 "C:/Program Files/CodeBlocks/MinGW/lib/gcc/x86_64-w64-mingw32/8.1.0/include/c++/cstdlib"
	.file 26 "C:/Program Files/CodeBlocks/MinGW/lib/gcc/x86_64-w64-mingw32/8.1.0/include/c++/cstdio"
	.file 27 "C:/Program Files/CodeBlocks/MinGW/lib/gcc/x86_64-w64-mingw32/8.1.0/include/c++/system_error"
	.file 28 "C:/Program Files/CodeBlocks/MinGW/lib/gcc/x86_64-w64-mingw32/8.1.0/include/c++/bits/ios_base.h"
	.file 29 "C:/Program Files/CodeBlocks/MinGW/lib/gcc/x86_64-w64-mingw32/8.1.0/include/c++/cwctype"
	.file 30 "C:/Program Files/CodeBlocks/MinGW/lib/gcc/x86_64-w64-mingw32/8.1.0/include/c++/bits/ostream.tcc"
	.file 31 "C:/Program Files/CodeBlocks/MinGW/lib/gcc/x86_64-w64-mingw32/8.1.0/include/c++/istream"
	.file 32 "C:/Program Files/CodeBlocks/MinGW/lib/gcc/x86_64-w64-mingw32/8.1.0/include/c++/iosfwd"
	.file 33 "C:/Program Files/CodeBlocks/MinGW/lib/gcc/x86_64-w64-mingw32/8.1.0/include/c++/cstring"
	.file 34 "C:/Program Files/CodeBlocks/MinGW/lib/gcc/x86_64-w64-mingw32/8.1.0/include/c++/bits/predefined_ops.h"
	.file 35 "C:/Program Files/CodeBlocks/MinGW/lib/gcc/x86_64-w64-mingw32/8.1.0/include/c++/ext/new_allocator.h"
	.file 36 "C:/Program Files/CodeBlocks/MinGW/lib/gcc/x86_64-w64-mingw32/8.1.0/include/c++/ext/numeric_traits.h"
	.file 37 "C:/Program Files/CodeBlocks/MinGW/lib/gcc/x86_64-w64-mingw32/8.1.0/include/c++/ext/type_traits.h"
	.file 38 "C:/Program Files/CodeBlocks/MinGW/x86_64-w64-mingw32/include/crtdefs.h"
	.file 39 "C:/Program Files/CodeBlocks/MinGW/x86_64-w64-mingw32/include/locale.h"
	.file 40 "C:/Program Files/CodeBlocks/MinGW/x86_64-w64-mingw32/include/wchar.h"
	.file 41 "C:/Program Files/CodeBlocks/MinGW/x86_64-w64-mingw32/include/swprintf.inl"
	.file 42 "C:/Program Files/CodeBlocks/MinGW/x86_64-w64-mingw32/include/stdint.h"
	.file 43 "C:/Program Files/CodeBlocks/MinGW/x86_64-w64-mingw32/include/stdio.h"
	.file 44 "C:/Program Files/CodeBlocks/MinGW/x86_64-w64-mingw32/include/ctype.h"
	.file 45 "C:/Program Files/CodeBlocks/MinGW/x86_64-w64-mingw32/include/process.h"
	.file 46 "C:/Program Files/CodeBlocks/MinGW/x86_64-w64-mingw32/include/pthread.h"
	.file 47 "C:/Program Files/CodeBlocks/MinGW/lib/gcc/x86_64-w64-mingw32/8.1.0/include/c++/x86_64-w64-mingw32/bits/atomic_word.h"
	.file 48 "C:/Program Files/CodeBlocks/MinGW/x86_64-w64-mingw32/include/stdlib.h"
	.file 49 "C:/Program Files/CodeBlocks/MinGW/x86_64-w64-mingw32/include/malloc.h"
	.file 50 "C:/Program Files/CodeBlocks/MinGW/x86_64-w64-mingw32/include/wctype.h"
	.file 51 "C:/Program Files/CodeBlocks/MinGW/x86_64-w64-mingw32/include/string.h"
	.file 52 "C:/Program Files/CodeBlocks/MinGW/x86_64-w64-mingw32/include/math.h"
	.file 53 "<built-in>"
	.section	.rdata$.refptr._ZSt4cout, "dr"
	.globl	.refptr._ZSt4cout
	.linkonce	discard
.refptr._ZSt4cout:
	.quad	_ZSt4cout
	.section	.rdata$.refptr._ZSt3cin, "dr"
	.globl	.refptr._ZSt3cin
	.linkonce	discard
.refptr._ZSt3cin:
	.quad	_ZSt3cin
