	.file	"main.cpp"
	.text
.Ltext0:
	.cfi_sections	.debug_frame
	.p2align 4,,15
	.def	__tcf_0;	.scl	3;	.type	32;	.endef
	.seh_proc	__tcf_0
__tcf_0:
.LFB2406:
	.file 1 "C:/Program Files/CodeBlocks/MinGW/lib/gcc/x86_64-w64-mingw32/8.1.0/include/c++/iostream"
	.loc 1 74 25 view -0
	.cfi_startproc
	.seh_endprologue
	.loc 1 74 25 is_stmt 0 view .LVU1
	leaq	_ZStL8__ioinit(%rip), %rcx
	jmp	_ZNSt8ios_base4InitD1Ev
.LVL0:
	.cfi_endproc
.LFE2406:
	.seh_endproc
	.p2align 4,,15
	.def	_Z5get_yP4treeii.part.1;	.scl	3;	.type	32;	.endef
	.seh_proc	_Z5get_yP4treeii.part.1
_Z5get_yP4treeii.part.1:
.LVL1:
.LFB2409:
	.file 2 "C:/Users/Saha2/Desktop/Code-Samples/C++/temporary_stuff/lexa_NVP/main.cpp"
	.loc 2 71 5 is_stmt 1 view -0
	.cfi_startproc
	.loc 2 71 5 is_stmt 0 view .LVU3
	pushq	%rbp
	.seh_pushreg	%rbp
	.cfi_def_cfa_offset 16
	.cfi_offset 6, -16
	pushq	%rdi
	.seh_pushreg	%rdi
	.cfi_def_cfa_offset 24
	.cfi_offset 5, -24
	pushq	%rsi
	.seh_pushreg	%rsi
	.cfi_def_cfa_offset 32
	.cfi_offset 4, -32
	pushq	%rbx
	.seh_pushreg	%rbx
	.cfi_def_cfa_offset 40
	.cfi_offset 3, -40
	subq	$40, %rsp
	.seh_stackalloc	40
	.cfi_def_cfa_offset 80
	.seh_endprologue
	.loc 2 78 5 is_stmt 1 view .LVU4
.LBB127:
.LBB128:
	.loc 2 15 70 is_stmt 0 view .LVU5
	xorl	%esi, %esi
.LBE128:
.LBE127:
	.loc 2 78 16 view .LVU6
	leal	(%r8,%rdx), %eax
	.loc 2 71 5 view .LVU7
	movq	%rcx, %rdi
	.loc 2 80 15 view .LVU8
	movq	8(%rcx), %rcx
.LVL2:
	.loc 2 71 5 view .LVU9
	movl	%r8d, %ebp
	.loc 2 78 9 view .LVU10
	movl	%eax, %ebx
	shrl	$31, %ebx
	addl	%eax, %ebx
	sarl	%ebx
.LVL3:
	.loc 2 79 5 is_stmt 1 view .LVU11
.LBB129:
.LBI127:
	.loc 2 15 36 view .LVU12
	.loc 2 15 36 is_stmt 0 view .LVU13
.LBE129:
	.loc 2 80 5 is_stmt 1 view .LVU14
	testq	%rcx, %rcx
	je	.L4
	.loc 2 81 9 view .LVU15
.LVL4:
.LBB130:
.LBI130:
	.loc 2 71 5 view .LVU16
.LBB131:
	.loc 2 72 5 view .LVU17
	.loc 2 72 11 is_stmt 0 view .LVU18
	movl	ry(%rip), %eax
	.loc 2 72 5 view .LVU19
	cmpl	%eax, %ebx
	jg	.L5
	.loc 2 73 9 is_stmt 1 view .LVU20
.LVL5:
.LBB132:
.LBI132:
	.loc 2 21 36 view .LVU21
.LBB133:
	.loc 2 21 57 view .LVU22
	.loc 2 21 64 is_stmt 0 view .LVU23
	movl	(%rcx), %eax
.LVL6:
.L6:
	.loc 2 21 64 view .LVU24
.LBE133:
.LBE132:
.LBE131:
.LBE130:
	.loc 2 18 9 is_stmt 1 view .LVU25
	testl	%eax, %eax
	movl	$0, %esi
	cmovns	%eax, %esi
.LVL7:
.L4:
	.loc 2 82 5 view .LVU26
	.loc 2 82 15 is_stmt 0 view .LVU27
	movq	16(%rdi), %rcx
	.loc 2 82 5 view .LVU28
	testq	%rcx, %rcx
	je	.L3
	.loc 2 83 9 is_stmt 1 view .LVU29
.LVL8:
.LBB135:
.LBI135:
	.loc 2 71 5 view .LVU30
.LBB136:
	.loc 2 72 5 view .LVU31
	.loc 2 72 11 is_stmt 0 view .LVU32
	movl	ry(%rip), %eax
	.loc 2 72 5 view .LVU33
	cmpl	%eax, %ebp
	jg	.L8
	.loc 2 73 9 is_stmt 1 view .LVU34
.LVL9:
.LBB137:
.LBI137:
	.loc 2 21 36 view .LVU35
.LBB138:
	.loc 2 21 57 view .LVU36
	.loc 2 21 64 is_stmt 0 view .LVU37
	movl	(%rcx), %eax
.LVL10:
.L9:
	.loc 2 21 64 view .LVU38
.LBE138:
.LBE137:
.LBE136:
.LBE135:
	.loc 2 18 9 is_stmt 1 view .LVU39
	cmpl	%eax, %esi
	cmovl	%eax, %esi
.LVL11:
.L3:
	.loc 2 85 1 is_stmt 0 view .LVU40
	movl	%esi, %eax
	addq	$40, %rsp
	.cfi_remember_state
	.cfi_def_cfa_offset 40
	popq	%rbx
	.cfi_restore 3
	.cfi_def_cfa_offset 32
.LVL12:
	.loc 2 85 1 view .LVU41
	popq	%rsi
	.cfi_restore 4
	.cfi_def_cfa_offset 24
	popq	%rdi
	.cfi_restore 5
	.cfi_def_cfa_offset 16
.LVL13:
	.loc 2 85 1 view .LVU42
	popq	%rbp
	.cfi_restore 6
	.cfi_def_cfa_offset 8
.LVL14:
	.loc 2 85 1 view .LVU43
	ret
.LVL15:
	.p2align 4,,10
.L8:
	.cfi_restore_state
.LBB140:
.LBB139:
	.loc 2 75 5 is_stmt 1 view .LVU44
	cmpl	%eax, %ebx
	jge	.L3
	movl	%ebp, %r8d
	movl	%ebx, %edx
	call	_Z5get_yP4treeii.part.1
.LVL16:
	.loc 2 75 5 is_stmt 0 view .LVU45
	jmp	.L9
.LVL17:
	.p2align 4,,10
.L5:
	.loc 2 75 5 view .LVU46
.LBE139:
.LBE140:
.LBB141:
.LBB134:
	.loc 2 75 5 is_stmt 1 view .LVU47
	cmpl	%eax, %edx
	jge	.L4
	movl	%ebx, %r8d
	call	_Z5get_yP4treeii.part.1
.LVL18:
	.loc 2 75 5 is_stmt 0 view .LVU48
	jmp	.L6
.LBE134:
.LBE141:
	.cfi_endproc
.LFE2409:
	.seh_endproc
	.p2align 4,,15
	.globl	_Z5upd_yP4treeii
	.def	_Z5upd_yP4treeii;	.scl	2;	.type	32;	.endef
	.seh_proc	_Z5upd_yP4treeii
_Z5upd_yP4treeii:
.LVL19:
.LFB1909:
	.loc 2 37 38 is_stmt 1 view -0
	.cfi_startproc
	.loc 2 37 38 is_stmt 0 view .LVU50
	pushq	%rsi
	.seh_pushreg	%rsi
	.cfi_def_cfa_offset 16
	.cfi_offset 4, -16
	pushq	%rbx
	.seh_pushreg	%rbx
	.cfi_def_cfa_offset 24
	.cfi_offset 3, -24
	subq	$40, %rsp
	.seh_stackalloc	40
	.cfi_def_cfa_offset 64
	.seh_endprologue
	.loc 2 38 5 is_stmt 1 view .LVU51
	.loc 2 38 11 is_stmt 0 view .LVU52
	movl	%r8d, %eax
	.loc 2 37 38 view .LVU53
	movq	%rcx, %rsi
	.loc 2 38 11 view .LVU54
	subl	%edx, %eax
	.loc 2 38 5 view .LVU55
	cmpl	$1, %eax
	je	.L34
	.loc 2 42 5 is_stmt 1 view .LVU56
	.loc 2 42 16 is_stmt 0 view .LVU57
	leal	(%r8,%rdx), %eax
	.loc 2 42 9 view .LVU58
	movl	%eax, %ebx
	shrl	$31, %ebx
	addl	%eax, %ebx
	sarl	%ebx
.LVL20:
	.loc 2 43 5 is_stmt 1 view .LVU59
	cmpl	%ebx, y(%rip)
	jl	.L35
	.loc 2 48 9 view .LVU60
	.loc 2 48 20 is_stmt 0 view .LVU61
	movq	16(%rcx), %rcx
.LVL21:
	.loc 2 48 9 view .LVU62
	testq	%rcx, %rcx
	je	.L36
.LVL22:
.L23:
	.loc 2 50 9 is_stmt 1 view .LVU63
	.loc 2 50 14 is_stmt 0 view .LVU64
	movl	%ebx, %edx
	call	_Z5upd_yP4treeii
.LVL23:
.L22:
	.loc 2 52 5 is_stmt 1 view .LVU65
	.loc 2 52 15 is_stmt 0 view .LVU66
	movq	8(%rsi), %rax
	.loc 2 52 5 view .LVU67
	testq	%rax, %rax
	je	.L24
	.loc 2 53 9 is_stmt 1 view .LVU68
	.loc 2 53 18 is_stmt 0 view .LVU69
	movl	(%rax), %eax
	movl	%eax, (%rsi)
.L24:
	.loc 2 54 5 is_stmt 1 view .LVU70
	.loc 2 54 15 is_stmt 0 view .LVU71
	movq	16(%rsi), %rax
	.loc 2 54 5 view .LVU72
	testq	%rax, %rax
	je	.L16
	.loc 2 55 9 is_stmt 1 view .LVU73
	.loc 2 55 18 is_stmt 0 view .LVU74
	movl	(%rax), %eax
.LVL24:
.L32:
	.loc 2 55 18 view .LVU75
	movl	%eax, (%rsi)
.L16:
	.loc 2 56 1 view .LVU76
	addq	$40, %rsp
	.cfi_remember_state
	.cfi_def_cfa_offset 24
	popq	%rbx
	.cfi_restore 3
	.cfi_def_cfa_offset 16
	popq	%rsi
	.cfi_restore 4
	.cfi_def_cfa_offset 8
.LVL25:
	.loc 2 56 1 view .LVU77
	ret
.LVL26:
	.p2align 4,,10
.L35:
	.cfi_restore_state
	.loc 2 44 9 is_stmt 1 view .LVU78
	.loc 2 44 20 is_stmt 0 view .LVU79
	movq	8(%rcx), %rcx
.LVL27:
	.loc 2 44 9 view .LVU80
	testq	%rcx, %rcx
	je	.L37
.LVL28:
.L21:
	.loc 2 46 9 is_stmt 1 view .LVU81
	.loc 2 46 14 is_stmt 0 view .LVU82
	movl	%ebx, %r8d
	call	_Z5upd_yP4treeii
.LVL29:
	jmp	.L22
.LVL30:
	.p2align 4,,10
.L34:
	.loc 2 39 9 is_stmt 1 view .LVU83
.LBB156:
.LBI156:
	.loc 2 17 41 view .LVU84
.LBB157:
	.loc 2 18 9 view .LVU85
	.loc 2 18 21 is_stmt 0 view .LVU86
	movl	v(%rip), %eax
	.loc 2 18 9 view .LVU87
	cmpl	%eax, (%rcx)
	jl	.L32
.LBE157:
.LBE156:
	.loc 2 56 1 view .LVU88
	addq	$40, %rsp
	.cfi_remember_state
	.cfi_def_cfa_offset 24
	popq	%rbx
	.cfi_restore 3
	.cfi_def_cfa_offset 16
	popq	%rsi
	.cfi_restore 4
	.cfi_def_cfa_offset 8
	ret
.LVL31:
	.p2align 4,,10
.L36:
	.cfi_restore_state
	.loc 2 49 36 view .LVU89
	movl	$24, %ecx
	movl	%r8d, 80(%rsp)
	.loc 2 49 13 is_stmt 1 view .LVU90
	.loc 2 49 36 is_stmt 0 view .LVU91
	call	_Znwy
.LVL32:
.LBB158:
.LBB159:
	.loc 2 31 12 view .LVU92
	pxor	%xmm0, %xmm0
.LBE159:
.LBE158:
	.loc 2 49 25 view .LVU93
	movl	80(%rsp), %r8d
	.loc 2 49 36 view .LVU94
	movq	%rax, %rcx
.LVL33:
.LBB163:
.LBB162:
.LBB160:
.LBI160:
	.loc 2 15 36 is_stmt 1 view .LVU95
.LBB161:
	.loc 2 15 70 is_stmt 0 view .LVU96
	movl	$0, (%rax)
.LVL34:
	.loc 2 15 70 view .LVU97
.LBE161:
.LBE160:
	.loc 2 31 12 view .LVU98
	movups	%xmm0, 8(%rax)
.LVL35:
	.loc 2 31 12 view .LVU99
.LBE162:
.LBE163:
	.loc 2 49 25 view .LVU100
	movq	%rax, 16(%rsi)
	jmp	.L23
.LVL36:
	.p2align 4,,10
.L37:
	.loc 2 45 35 view .LVU101
	movl	$24, %ecx
	movl	%edx, 72(%rsp)
	.loc 2 45 13 is_stmt 1 view .LVU102
	.loc 2 45 35 is_stmt 0 view .LVU103
	call	_Znwy
.LVL37:
.LBB164:
.LBB165:
	.loc 2 31 12 view .LVU104
	pxor	%xmm0, %xmm0
.LBE165:
.LBE164:
	.loc 2 45 24 view .LVU105
	movl	72(%rsp), %edx
	.loc 2 45 35 view .LVU106
	movq	%rax, %rcx
.LVL38:
.LBB169:
.LBB168:
.LBB166:
.LBI166:
	.loc 2 15 36 is_stmt 1 view .LVU107
.LBB167:
	.loc 2 15 70 is_stmt 0 view .LVU108
	movl	$0, (%rax)
.LVL39:
	.loc 2 15 70 view .LVU109
.LBE167:
.LBE166:
	.loc 2 31 12 view .LVU110
	movups	%xmm0, 8(%rax)
.LVL40:
	.loc 2 31 12 view .LVU111
.LBE168:
.LBE169:
	.loc 2 45 24 view .LVU112
	movq	%rax, 8(%rsi)
	jmp	.L21
	.cfi_endproc
.LFE1909:
	.seh_endproc
	.p2align 4,,15
	.globl	_Z5upd_xv
	.def	_Z5upd_xv;	.scl	2;	.type	32;	.endef
	.seh_proc	_Z5upd_xv
_Z5upd_xv:
.LFB1910:
	.loc 2 58 14 is_stmt 1 view -0
	.cfi_startproc
	pushq	%rdi
	.seh_pushreg	%rdi
	.cfi_def_cfa_offset 16
	.cfi_offset 5, -16
	pushq	%rsi
	.seh_pushreg	%rsi
	.cfi_def_cfa_offset 24
	.cfi_offset 4, -24
	pushq	%rbx
	.seh_pushreg	%rbx
	.cfi_def_cfa_offset 32
	.cfi_offset 3, -32
	subq	$64, %rsp
	.seh_stackalloc	64
	.cfi_def_cfa_offset 96
	movaps	%xmm6, 48(%rsp)
	.seh_savexmm	%xmm6, 48
	.cfi_offset 23, -48
	.seh_endprologue
	.loc 2 59 5 view .LVU114
	.loc 2 59 7 is_stmt 0 view .LVU115
	movl	x(%rip), %eax
	.loc 2 60 13 view .LVU116
	leaq	t(%rip), %rdi
	.loc 2 59 7 view .LVU117
	movl	n(%rip), %r8d
	addl	%r8d, %eax
	movl	%eax, x(%rip)
	.loc 2 60 5 is_stmt 1 view .LVU118
	.loc 2 60 13 is_stmt 0 view .LVU119
	cltq
	movq	(%rdi,%rax,8), %rcx
	.loc 2 60 5 view .LVU120
	testq	%rcx, %rcx
	je	.L59
.L39:
	.loc 2 62 5 is_stmt 1 view .LVU121
	.loc 2 62 10 is_stmt 0 view .LVU122
	xorl	%edx, %edx
.LBB198:
.LBB199:
	.loc 2 31 12 view .LVU123
	pxor	%xmm6, %xmm6
.LBE199:
.LBE198:
	.loc 2 62 10 view .LVU124
	call	_Z5upd_yP4treeii
.LVL41:
	.loc 2 63 5 is_stmt 1 view .LVU125
	.loc 2 63 14 is_stmt 0 view .LVU126
	movl	x(%rip), %eax
	cmpl	$1, %eax
	jg	.L40
	jmp	.L38
.LVL42:
	.p2align 4,,10
.L62:
.LBB203:
.LBB204:
	.loc 2 44 9 is_stmt 1 view .LVU127
	.loc 2 44 20 is_stmt 0 view .LVU128
	movq	8(%rsi), %rcx
	.loc 2 44 9 view .LVU129
	testq	%rcx, %rcx
	je	.L60
.LVL43:
.L46:
	.loc 2 46 9 is_stmt 1 view .LVU130
	.loc 2 46 14 is_stmt 0 view .LVU131
	movl	%ebx, %r8d
	xorl	%edx, %edx
	call	_Z5upd_yP4treeii
.LVL44:
.L47:
	.loc 2 52 5 is_stmt 1 view .LVU132
	.loc 2 52 15 is_stmt 0 view .LVU133
	movq	8(%rsi), %rax
	.loc 2 52 5 view .LVU134
	testq	%rax, %rax
	je	.L49
	.loc 2 53 9 is_stmt 1 view .LVU135
	.loc 2 53 18 is_stmt 0 view .LVU136
	movl	(%rax), %eax
	movl	%eax, (%rsi)
.L49:
	.loc 2 54 5 is_stmt 1 view .LVU137
	.loc 2 54 15 is_stmt 0 view .LVU138
	movq	16(%rsi), %rdx
	movl	x(%rip), %eax
	.loc 2 54 5 view .LVU139
	testq	%rdx, %rdx
	je	.L44
	.loc 2 55 9 is_stmt 1 view .LVU140
	.loc 2 55 18 is_stmt 0 view .LVU141
	movl	(%rdx), %edx
	movl	%edx, (%rsi)
.LVL45:
.L44:
	.loc 2 55 18 view .LVU142
.LBE204:
.LBE203:
	.loc 2 63 21 view .LVU143
	sarl	%eax
	.loc 2 63 14 view .LVU144
	cmpl	$1, %eax
	.loc 2 63 21 view .LVU145
	movl	%eax, x(%rip)
	.loc 2 63 5 is_stmt 1 view .LVU146
	.loc 2 63 14 is_stmt 0 view .LVU147
	jle	.L38
.L40:
	.loc 2 64 9 is_stmt 1 view .LVU148
	.loc 2 64 17 is_stmt 0 view .LVU149
	movslq	%eax, %rdx
	.loc 2 64 9 view .LVU150
	cmpq	$0, (%rdi,%rdx,8)
	je	.L41
	movq	(%rdi,%rdx,8), %rsi
.L42:
	.loc 2 66 9 is_stmt 1 view .LVU151
	.loc 2 66 14 is_stmt 0 view .LVU152
	movl	n(%rip), %r8d
.LVL46:
.LBB223:
.LBI203:
	.loc 2 37 6 is_stmt 1 view .LVU153
.LBB221:
	.loc 2 38 5 view .LVU154
	cmpl	$1, %r8d
	je	.L61
	.loc 2 42 5 view .LVU155
	.loc 2 42 9 is_stmt 0 view .LVU156
	movl	%r8d, %ebx
	shrl	$31, %ebx
	addl	%r8d, %ebx
	sarl	%ebx
.LVL47:
	.loc 2 43 5 is_stmt 1 view .LVU157
	cmpl	y(%rip), %ebx
	jg	.L62
	.loc 2 48 9 view .LVU158
	.loc 2 48 20 is_stmt 0 view .LVU159
	movq	16(%rsi), %rcx
	.loc 2 48 9 view .LVU160
	testq	%rcx, %rcx
	je	.L63
.LVL48:
.L48:
	.loc 2 50 9 is_stmt 1 view .LVU161
	.loc 2 50 14 is_stmt 0 view .LVU162
	movl	%ebx, %edx
	call	_Z5upd_yP4treeii
.LVL49:
	jmp	.L47
.LVL50:
	.p2align 4,,10
.L61:
	.loc 2 39 9 is_stmt 1 view .LVU163
.LBB205:
.LBI205:
	.loc 2 17 41 view .LVU164
.LBB206:
	.loc 2 18 9 view .LVU165
	.loc 2 18 21 is_stmt 0 view .LVU166
	movl	v(%rip), %edx
	.loc 2 18 9 view .LVU167
	cmpl	%edx, (%rsi)
	jge	.L44
	.loc 2 18 28 is_stmt 1 view .LVU168
	.loc 2 18 34 is_stmt 0 view .LVU169
	movl	%edx, (%rsi)
.LVL51:
	.loc 2 18 34 view .LVU170
	movl	x(%rip), %eax
.LVL52:
	.loc 2 18 34 view .LVU171
.LBE206:
.LBE205:
.LBE221:
.LBE223:
	.loc 2 63 21 view .LVU172
	sarl	%eax
	.loc 2 63 14 view .LVU173
	cmpl	$1, %eax
	.loc 2 63 21 view .LVU174
	movl	%eax, x(%rip)
	.loc 2 63 5 is_stmt 1 view .LVU175
	.loc 2 63 14 is_stmt 0 view .LVU176
	jg	.L40
.LVL53:
.L38:
	.loc 2 68 1 view .LVU177
	movaps	48(%rsp), %xmm6
	addq	$64, %rsp
	.cfi_remember_state
	.cfi_restore 23
	.cfi_def_cfa_offset 32
	popq	%rbx
	.cfi_restore 3
	.cfi_def_cfa_offset 24
	popq	%rsi
	.cfi_restore 4
	.cfi_def_cfa_offset 16
	popq	%rdi
	.cfi_restore 5
	.cfi_def_cfa_offset 8
	ret
	.p2align 4,,10
.L41:
	.cfi_restore_state
	.loc 2 65 13 is_stmt 1 view .LVU178
	.loc 2 65 29 is_stmt 0 view .LVU179
	movl	$24, %ecx
	call	_Znwy
.LVL54:
	.loc 2 65 16 view .LVU180
	movslq	x(%rip), %rdx
	.loc 2 65 29 view .LVU181
	movq	%rax, %rsi
.LVL55:
.LBB224:
.LBB202:
.LBB200:
.LBI200:
	.loc 2 15 36 is_stmt 1 view .LVU182
.LBB201:
	.loc 2 15 70 is_stmt 0 view .LVU183
	movl	$0, (%rax)
.LVL56:
	.loc 2 15 70 view .LVU184
.LBE201:
.LBE200:
	.loc 2 31 12 view .LVU185
	movups	%xmm6, 8(%rax)
.LVL57:
	.loc 2 31 12 view .LVU186
.LBE202:
.LBE224:
	.loc 2 65 18 view .LVU187
	movq	%rsi, (%rdi,%rdx,8)
	.loc 2 65 16 view .LVU188
	movq	%rdx, %rax
	jmp	.L42
.LVL58:
	.p2align 4,,10
.L60:
.LBB225:
.LBB222:
	.loc 2 45 13 is_stmt 1 view .LVU189
	.loc 2 45 35 is_stmt 0 view .LVU190
	movl	$24, %ecx
	call	_Znwy
.LVL59:
.LBB207:
.LBB208:
.LBB209:
.LBB210:
	.loc 2 15 70 view .LVU191
	movl	$0, (%rax)
.LBE210:
.LBE209:
.LBE208:
.LBE207:
	.loc 2 45 35 view .LVU192
	movq	%rax, %rcx
.LVL60:
.LBB213:
.LBB212:
.LBB211:
.LBI209:
	.loc 2 15 36 is_stmt 1 view .LVU193
	.loc 2 15 36 is_stmt 0 view .LVU194
.LBE211:
	.loc 2 31 12 view .LVU195
	movups	%xmm6, 8(%rax)
.LVL61:
	.loc 2 31 12 view .LVU196
.LBE212:
.LBE213:
	.loc 2 45 24 view .LVU197
	movq	%rax, 8(%rsi)
	jmp	.L46
.LVL62:
	.p2align 4,,10
.L63:
	.loc 2 49 36 view .LVU198
	movl	$24, %ecx
	movl	%r8d, 44(%rsp)
	.loc 2 49 13 is_stmt 1 view .LVU199
	.loc 2 49 36 is_stmt 0 view .LVU200
	call	_Znwy
.LVL63:
	.loc 2 49 25 view .LVU201
	movl	44(%rsp), %r8d
.LBB214:
.LBB215:
.LBB216:
.LBB217:
	.loc 2 15 70 view .LVU202
	movl	$0, (%rax)
.LBE217:
.LBE216:
.LBE215:
.LBE214:
	.loc 2 49 36 view .LVU203
	movq	%rax, %rcx
.LVL64:
.LBB220:
.LBB219:
.LBB218:
.LBI216:
	.loc 2 15 36 is_stmt 1 view .LVU204
	.loc 2 15 36 is_stmt 0 view .LVU205
.LBE218:
	.loc 2 31 12 view .LVU206
	movups	%xmm6, 8(%rax)
.LVL65:
	.loc 2 31 12 view .LVU207
.LBE219:
.LBE220:
	.loc 2 49 25 view .LVU208
	movq	%rax, 16(%rsi)
	jmp	.L48
.LVL66:
	.p2align 4,,10
.L59:
	.loc 2 49 25 view .LVU209
.LBE222:
.LBE225:
	.loc 2 61 9 is_stmt 1 view .LVU210
	.loc 2 61 25 is_stmt 0 view .LVU211
	movl	$24, %ecx
	call	_Znwy
.LVL67:
.LBB226:
.LBB227:
	.loc 2 31 12 view .LVU212
	pxor	%xmm0, %xmm0
	movl	n(%rip), %r8d
.LBE227:
.LBE226:
	.loc 2 61 25 view .LVU213
	movq	%rax, %rcx
.LVL68:
.LBB231:
.LBB230:
.LBB228:
.LBI228:
	.loc 2 15 36 is_stmt 1 view .LVU214
.LBB229:
	.loc 2 15 70 is_stmt 0 view .LVU215
	movl	$0, (%rax)
.LVL69:
	.loc 2 15 70 view .LVU216
.LBE229:
.LBE228:
	.loc 2 31 12 view .LVU217
	movups	%xmm0, 8(%rax)
.LVL70:
	.loc 2 31 12 view .LVU218
.LBE230:
.LBE231:
	.loc 2 61 14 view .LVU219
	movslq	x(%rip), %rax
	movq	%rcx, (%rdi,%rax,8)
	jmp	.L39
	.cfi_endproc
.LFE1910:
	.seh_endproc
	.p2align 4,,15
	.globl	_Z5get_yP4treeii
	.def	_Z5get_yP4treeii;	.scl	2;	.type	32;	.endef
	.seh_proc	_Z5get_yP4treeii
_Z5get_yP4treeii:
.LVL71:
.LFB1911:
	.loc 2 71 37 is_stmt 1 view -0
	.cfi_startproc
	.loc 2 71 37 is_stmt 0 view .LVU221
	pushq	%r15
	.seh_pushreg	%r15
	.cfi_def_cfa_offset 16
	.cfi_offset 15, -16
	pushq	%r14
	.seh_pushreg	%r14
	.cfi_def_cfa_offset 24
	.cfi_offset 14, -24
	pushq	%r13
	.seh_pushreg	%r13
	.cfi_def_cfa_offset 32
	.cfi_offset 13, -32
	pushq	%r12
	.seh_pushreg	%r12
	.cfi_def_cfa_offset 40
	.cfi_offset 12, -40
	pushq	%rbp
	.seh_pushreg	%rbp
	.cfi_def_cfa_offset 48
	.cfi_offset 6, -48
	pushq	%rdi
	.seh_pushreg	%rdi
	.cfi_def_cfa_offset 56
	.cfi_offset 5, -56
	pushq	%rsi
	.seh_pushreg	%rsi
	.cfi_def_cfa_offset 64
	.cfi_offset 4, -64
	pushq	%rbx
	.seh_pushreg	%rbx
	.cfi_def_cfa_offset 72
	.cfi_offset 3, -72
	subq	$40, %rsp
	.seh_stackalloc	40
	.cfi_def_cfa_offset 112
	.seh_endprologue
	.loc 2 72 5 is_stmt 1 view .LVU222
	.loc 2 72 11 is_stmt 0 view .LVU223
	movl	ry(%rip), %r10d
	.loc 2 72 5 view .LVU224
	cmpl	%r8d, %r10d
	.loc 2 71 37 view .LVU225
	movq	%rcx, %rbx
	movl	%r8d, %r11d
	.loc 2 72 5 view .LVU226
	jl	.L65
	.loc 2 73 9 is_stmt 1 view .LVU227
.LVL72:
.LBB583:
.LBI583:
	.loc 2 21 36 view .LVU228
.LBB584:
	.loc 2 21 57 view .LVU229
	.loc 2 21 64 is_stmt 0 view .LVU230
	movl	(%rcx), %r9d
.LVL73:
.L64:
	.loc 2 21 64 view .LVU231
.LBE584:
.LBE583:
	.loc 2 85 1 view .LVU232
	movl	%r9d, %eax
	addq	$40, %rsp
	.cfi_remember_state
	.cfi_def_cfa_offset 72
	popq	%rbx
	.cfi_restore 3
	.cfi_def_cfa_offset 64
	popq	%rsi
	.cfi_restore 4
	.cfi_def_cfa_offset 56
	popq	%rdi
	.cfi_restore 5
	.cfi_def_cfa_offset 48
	popq	%rbp
	.cfi_restore 6
	.cfi_def_cfa_offset 40
	popq	%r12
	.cfi_restore 12
	.cfi_def_cfa_offset 32
	popq	%r13
	.cfi_restore 13
	.cfi_def_cfa_offset 24
	popq	%r14
	.cfi_restore 14
	.cfi_def_cfa_offset 16
	popq	%r15
	.cfi_restore 15
	.cfi_def_cfa_offset 8
	ret
.LVL74:
	.p2align 4,,10
.L65:
	.cfi_restore_state
	.loc 2 75 5 is_stmt 1 view .LVU233
	.loc 2 76 16 is_stmt 0 view .LVU234
	xorl	%r9d, %r9d
	.loc 2 75 5 view .LVU235
	cmpl	%edx, %r10d
	jle	.L64
.LVL75:
.LBB585:
.LBB586:
	.loc 2 78 5 is_stmt 1 view .LVU236
	.loc 2 78 16 is_stmt 0 view .LVU237
	leal	(%r8,%rdx), %eax
	.loc 2 80 15 view .LVU238
	movq	8(%rcx), %rdi
	.loc 2 78 9 view .LVU239
	movl	%eax, %esi
	shrl	$31, %esi
	addl	%eax, %esi
	sarl	%esi
.LVL76:
	.loc 2 79 5 is_stmt 1 view .LVU240
.LBB587:
.LBI587:
	.loc 2 15 36 view .LVU241
	.loc 2 15 36 is_stmt 0 view .LVU242
.LBE587:
	.loc 2 80 5 is_stmt 1 view .LVU243
	testq	%rdi, %rdi
	je	.L67
	.loc 2 81 9 view .LVU244
.LVL77:
.LBB589:
.LBI589:
	.loc 2 71 5 view .LVU245
.LBB590:
	.loc 2 72 5 view .LVU246
	cmpl	%esi, %r10d
	jge	.L290
	.loc 2 75 5 view .LVU247
.LVL78:
.LBB591:
.LBB592:
	.loc 2 78 5 view .LVU248
	.loc 2 78 16 is_stmt 0 view .LVU249
	leal	(%rdx,%rsi), %eax
	.loc 2 80 15 view .LVU250
	movq	8(%rdi), %r12
	.loc 2 78 9 view .LVU251
	movl	%eax, %ebp
	shrl	$31, %ebp
	addl	%eax, %ebp
	sarl	%ebp
.LVL79:
	.loc 2 79 5 is_stmt 1 view .LVU252
.LBB593:
.LBI593:
	.loc 2 15 36 view .LVU253
	.loc 2 15 36 is_stmt 0 view .LVU254
.LBE593:
	.loc 2 80 5 is_stmt 1 view .LVU255
	testq	%r12, %r12
	je	.L70
	.loc 2 81 9 view .LVU256
.LVL80:
.LBB594:
.LBI594:
	.loc 2 71 5 view .LVU257
.LBB595:
	.loc 2 72 5 view .LVU258
	cmpl	%ebp, %r10d
	jge	.L291
	.loc 2 75 5 view .LVU259
.LVL81:
.LBB596:
.LBB597:
	.loc 2 78 5 view .LVU260
	.loc 2 78 16 is_stmt 0 view .LVU261
	leal	(%rdx,%rbp), %eax
	.loc 2 80 15 view .LVU262
	movq	8(%r12), %r14
	.loc 2 78 9 view .LVU263
	movl	%eax, %r13d
	shrl	$31, %r13d
	addl	%eax, %r13d
	sarl	%r13d
.LVL82:
	.loc 2 79 5 is_stmt 1 view .LVU264
.LBB598:
.LBI598:
	.loc 2 15 36 view .LVU265
	.loc 2 15 36 is_stmt 0 view .LVU266
.LBE598:
	.loc 2 80 5 is_stmt 1 view .LVU267
	testq	%r14, %r14
	je	.L292
	.loc 2 81 9 view .LVU268
.LVL83:
.LBB599:
.LBI599:
	.loc 2 71 5 view .LVU269
.LBB600:
	.loc 2 72 5 view .LVU270
	cmpl	%r13d, %r10d
	jge	.L293
	.loc 2 75 5 view .LVU271
.LVL84:
.LBB601:
.LBB602:
	.loc 2 78 5 view .LVU272
	.loc 2 78 16 is_stmt 0 view .LVU273
	leal	(%rdx,%r13), %eax
	.loc 2 80 15 view .LVU274
	movq	8(%r14), %rcx
.LVL85:
	.loc 2 78 9 view .LVU275
	movl	%eax, %r15d
	shrl	$31, %r15d
	addl	%eax, %r15d
	sarl	%r15d
.LVL86:
	.loc 2 79 5 is_stmt 1 view .LVU276
.LBB603:
.LBI603:
	.loc 2 15 36 view .LVU277
	.loc 2 15 36 is_stmt 0 view .LVU278
.LBE603:
	.loc 2 80 5 is_stmt 1 view .LVU279
	testq	%rcx, %rcx
	je	.L76
	.loc 2 81 9 view .LVU280
.LVL87:
.LBB604:
.LBI604:
	.loc 2 71 5 view .LVU281
.LBB605:
	.loc 2 72 5 view .LVU282
	cmpl	%r15d, %r10d
	jge	.L294
	.loc 2 75 5 view .LVU283
	movl	%r15d, %r8d
.LVL88:
	.loc 2 75 5 is_stmt 0 view .LVU284
	call	_Z5get_yP4treeii.part.1
.LVL89:
	.loc 2 75 5 view .LVU285
	movl	%eax, %r9d
.L78:
.LVL90:
	.loc 2 75 5 view .LVU286
.LBE605:
.LBE604:
.LBB609:
.LBI609:
	.loc 2 17 41 is_stmt 1 view .LVU287
.LBB610:
	.loc 2 18 9 view .LVU288
	testl	%r9d, %r9d
	jle	.L76
	movq	16(%r14), %rcx
	.loc 2 18 28 view .LVU289
.LVL91:
	.loc 2 18 28 is_stmt 0 view .LVU290
.LBE610:
.LBE609:
	.loc 2 82 5 is_stmt 1 view .LVU291
	movq	16(%r12), %r14
	testq	%rcx, %rcx
	je	.L295
	.loc 2 83 9 view .LVU292
.LVL92:
.LBB611:
.LBI611:
	.loc 2 71 5 view .LVU293
.LBB612:
	.loc 2 72 5 view .LVU294
	.loc 2 75 5 view .LVU295
	cmpl	%r15d, %r10d
	jle	.L81
.LVL93:
.L80:
	.loc 2 75 5 is_stmt 0 view .LVU296
	movl	%r13d, %r8d
	movl	%r15d, %edx
	call	_Z5get_yP4treeii.part.1
.LVL94:
	.loc 2 75 5 view .LVU297
.LBE612:
.LBE611:
.LBE602:
.LBE601:
.LBE600:
.LBE599:
.LBE597:
.LBE596:
.LBE595:
.LBE594:
.LBE592:
.LBE591:
.LBE590:
.LBE589:
.LBE586:
.LBE585:
	.loc 2 18 9 is_stmt 1 view .LVU298
	cmpl	%eax, %r9d
	cmovl	%eax, %r9d
.LVL95:
.L75:
.LBB1258:
.LBB1248:
.LBB894:
.LBB876:
.LBB857:
.LBB840:
.LBB715:
.LBB701:
.LBB686:
.LBB673:
.LBB627:
.LBI627:
	.loc 2 17 41 view .LVU299
.LBB628:
	.loc 2 18 9 view .LVU300
	testl	%r9d, %r9d
	jle	.L73
	.loc 2 18 28 view .LVU301
.LVL96:
	.loc 2 18 28 is_stmt 0 view .LVU302
.LBE628:
.LBE627:
	.loc 2 82 5 is_stmt 1 view .LVU303
	testq	%r14, %r14
	je	.L169
	.loc 2 83 9 view .LVU304
.LVL97:
.LBB631:
.LBI631:
	.loc 2 71 5 view .LVU305
.LBB632:
	.loc 2 72 5 view .LVU306
	.loc 2 75 5 view .LVU307
	cmpl	%r13d, %r10d
	jle	.L185
.LVL98:
.L83:
.LBB633:
.LBB634:
	.loc 2 78 5 view .LVU308
	.loc 2 78 16 is_stmt 0 view .LVU309
	leal	0(%rbp,%r13), %eax
	.loc 2 80 15 view .LVU310
	movq	8(%r14), %rcx
	.loc 2 78 9 view .LVU311
	movl	%eax, %r15d
	shrl	$31, %r15d
	addl	%eax, %r15d
	sarl	%r15d
.LVL99:
	.loc 2 79 5 is_stmt 1 view .LVU312
.LBB635:
.LBI635:
	.loc 2 15 36 view .LVU313
	.loc 2 15 36 is_stmt 0 view .LVU314
.LBE635:
	.loc 2 80 5 is_stmt 1 view .LVU315
	testq	%rcx, %rcx
	je	.L296
	.loc 2 81 9 view .LVU316
.LVL100:
.LBB636:
.LBI636:
	.loc 2 71 5 view .LVU317
.LBB637:
	.loc 2 72 5 view .LVU318
	cmpl	%r15d, %r10d
	jge	.L297
	.loc 2 75 5 view .LVU319
	movl	%r15d, %r8d
	movl	%r13d, %edx
	call	_Z5get_yP4treeii.part.1
.LVL101:
	.loc 2 75 5 is_stmt 0 view .LVU320
	movl	%eax, %r12d
.LVL102:
.L87:
	.loc 2 75 5 view .LVU321
.LBE637:
.LBE636:
.LBB641:
.LBI641:
	.loc 2 17 41 is_stmt 1 view .LVU322
.LBB642:
	.loc 2 18 9 view .LVU323
	testl	%r12d, %r12d
	movq	16(%r14), %rcx
	jle	.L85
	.loc 2 18 28 view .LVU324
.LVL103:
	.loc 2 18 28 is_stmt 0 view .LVU325
.LBE642:
.LBE641:
	.loc 2 82 5 is_stmt 1 view .LVU326
	testq	%rcx, %rcx
	je	.L88
	.loc 2 83 9 view .LVU327
.LVL104:
.LBB643:
.LBI643:
	.loc 2 71 5 view .LVU328
.LBB644:
	.loc 2 72 5 view .LVU329
	.loc 2 75 5 view .LVU330
	cmpl	%r15d, %r10d
	jle	.L88
	movl	%ebp, %r8d
	movl	%r15d, %edx
	call	_Z5get_yP4treeii.part.1
.LVL105:
	.loc 2 75 5 is_stmt 0 view .LVU331
.LBE644:
.LBE643:
.LBE634:
.LBE633:
.LBE632:
.LBE631:
.LBE673:
.LBE686:
.LBE701:
.LBE715:
.LBE840:
.LBE857:
.LBE876:
.LBE894:
.LBE1248:
.LBE1258:
	.loc 2 18 9 is_stmt 1 view .LVU332
	cmpl	%r12d, %eax
	cmovge	%eax, %r12d
.LVL106:
.LBB1259:
.LBB1249:
.LBB895:
.LBB877:
.LBB858:
.LBB841:
.LBB716:
.LBB702:
.LBB687:
.LBB674:
.LBB657:
.LBI657:
	.loc 2 17 41 view .LVU333
.LBB658:
	.loc 2 18 9 view .LVU334
	cmpl	%r12d, %r9d
	jge	.L72
	movl	%r12d, %r9d
.LVL107:
	.p2align 4,,10
.L90:
	.loc 2 18 9 is_stmt 0 view .LVU335
.LBE658:
.LBE657:
.LBE674:
.LBE687:
.LBE702:
.LBE716:
.LBB717:
.LBB718:
	.loc 2 18 28 is_stmt 1 view .LVU336
	.loc 2 18 28 is_stmt 0 view .LVU337
.LBE718:
.LBE717:
	.loc 2 82 5 is_stmt 1 view .LVU338
	.loc 2 82 15 is_stmt 0 view .LVU339
	movq	16(%rdi), %rdi
.LVL108:
	.loc 2 82 5 view .LVU340
	testq	%rdi, %rdi
	je	.L64
	.loc 2 83 9 is_stmt 1 view .LVU341
.LVL109:
.LBB724:
.LBI724:
	.loc 2 71 5 view .LVU342
.LBB725:
	.loc 2 72 5 view .LVU343
	.loc 2 75 5 view .LVU344
	cmpl	%ebp, %r10d
	jle	.L197
.LVL110:
	.p2align 4,,10
.L91:
.LBB726:
.LBB727:
	.loc 2 78 5 view .LVU345
	.loc 2 78 16 is_stmt 0 view .LVU346
	leal	(%rsi,%rbp), %eax
	.loc 2 80 15 view .LVU347
	movq	8(%rdi), %r14
	.loc 2 78 9 view .LVU348
	movl	%eax, %r13d
	shrl	$31, %r13d
	addl	%eax, %r13d
	sarl	%r13d
.LVL111:
	.loc 2 79 5 is_stmt 1 view .LVU349
.LBB728:
.LBI728:
	.loc 2 15 36 view .LVU350
	.loc 2 15 36 is_stmt 0 view .LVU351
.LBE728:
	.loc 2 80 5 is_stmt 1 view .LVU352
	testq	%r14, %r14
	je	.L93
	.loc 2 81 9 view .LVU353
.LVL112:
.LBB729:
.LBI729:
	.loc 2 71 5 view .LVU354
.LBB730:
	.loc 2 72 5 view .LVU355
	cmpl	%r13d, %r10d
	jge	.L298
	.loc 2 75 5 view .LVU356
.LVL113:
.LBB731:
.LBB732:
	.loc 2 78 5 view .LVU357
	.loc 2 78 16 is_stmt 0 view .LVU358
	leal	0(%rbp,%r13), %eax
	.loc 2 80 15 view .LVU359
	movq	8(%r14), %rcx
	.loc 2 78 9 view .LVU360
	movl	%eax, %r15d
	shrl	$31, %r15d
	addl	%eax, %r15d
	sarl	%r15d
.LVL114:
	.loc 2 79 5 is_stmt 1 view .LVU361
.LBB733:
.LBI733:
	.loc 2 15 36 view .LVU362
	.loc 2 15 36 is_stmt 0 view .LVU363
.LBE733:
	.loc 2 80 5 is_stmt 1 view .LVU364
	testq	%rcx, %rcx
	je	.L299
	.loc 2 81 9 view .LVU365
.LVL115:
.LBB734:
.LBI734:
	.loc 2 71 5 view .LVU366
.LBB735:
	.loc 2 72 5 view .LVU367
	cmpl	%r15d, %r10d
	jge	.L300
	.loc 2 75 5 view .LVU368
	movl	%r15d, %r8d
	movl	%ebp, %edx
	call	_Z5get_yP4treeii.part.1
.LVL116:
	.loc 2 75 5 is_stmt 0 view .LVU369
	movl	%eax, %r12d
.L98:
.LVL117:
	.loc 2 75 5 view .LVU370
.LBE735:
.LBE734:
.LBB739:
.LBI739:
	.loc 2 17 41 is_stmt 1 view .LVU371
.LBB740:
	.loc 2 18 9 view .LVU372
	testl	%r12d, %r12d
	movq	16(%r14), %rcx
	jle	.L96
	.loc 2 18 28 view .LVU373
.LVL118:
	.loc 2 18 28 is_stmt 0 view .LVU374
.LBE740:
.LBE739:
	.loc 2 82 5 is_stmt 1 view .LVU375
	testq	%rcx, %rcx
	je	.L101
	.loc 2 83 9 view .LVU376
.LVL119:
.LBB741:
.LBI741:
	.loc 2 71 5 view .LVU377
.LBB742:
	.loc 2 72 5 view .LVU378
	.loc 2 75 5 view .LVU379
	cmpl	%r15d, %r10d
	jle	.L101
.LVL120:
.L100:
	.loc 2 75 5 is_stmt 0 view .LVU380
	movl	%r13d, %r8d
	movl	%r15d, %edx
	call	_Z5get_yP4treeii.part.1
.LVL121:
	.loc 2 75 5 view .LVU381
.LBE742:
.LBE741:
.LBE732:
.LBE731:
.LBE730:
.LBE729:
.LBE727:
.LBE726:
.LBE725:
.LBE724:
.LBE841:
.LBE858:
.LBE877:
.LBE895:
.LBE1249:
.LBE1259:
	.loc 2 18 9 is_stmt 1 view .LVU382
	cmpl	%eax, %r12d
	cmovl	%eax, %r12d
.LVL122:
.L95:
.LBB1260:
.LBB1250:
.LBB896:
.LBB878:
.LBB859:
.LBB842:
.LBB812:
.LBB803:
.LBB796:
.LBB789:
.LBB755:
.LBI755:
	.loc 2 17 41 view .LVU383
.LBB756:
	.loc 2 18 9 view .LVU384
	testl	%r12d, %r12d
	jle	.L93
	.loc 2 18 28 view .LVU385
.LVL123:
	.loc 2 18 28 is_stmt 0 view .LVU386
.LBE756:
.LBE755:
	.loc 2 82 5 is_stmt 1 view .LVU387
	.loc 2 82 15 is_stmt 0 view .LVU388
	movq	16(%rdi), %rdi
.LVL124:
	.loc 2 82 5 view .LVU389
	testq	%rdi, %rdi
	je	.L101
	.loc 2 83 9 is_stmt 1 view .LVU390
.LVL125:
.LBB757:
.LBI757:
	.loc 2 71 5 view .LVU391
.LBB758:
	.loc 2 72 5 view .LVU392
	.loc 2 75 5 view .LVU393
	cmpl	%r13d, %r10d
	jle	.L101
.LVL126:
.L159:
.LBB759:
.LBB760:
	.loc 2 78 5 view .LVU394
	.loc 2 78 16 is_stmt 0 view .LVU395
	leal	(%rsi,%r13), %eax
	.loc 2 80 15 view .LVU396
	movq	8(%rdi), %rcx
	.loc 2 78 9 view .LVU397
	movl	%eax, %r14d
	shrl	$31, %r14d
	addl	%eax, %r14d
	sarl	%r14d
.LVL127:
	.loc 2 79 5 is_stmt 1 view .LVU398
.LBB761:
.LBI761:
	.loc 2 15 36 view .LVU399
	.loc 2 15 36 is_stmt 0 view .LVU400
.LBE761:
	.loc 2 80 5 is_stmt 1 view .LVU401
	testq	%rcx, %rcx
	je	.L301
	.loc 2 81 9 view .LVU402
.LVL128:
.LBB762:
.LBI762:
	.loc 2 71 5 view .LVU403
.LBB763:
	.loc 2 72 5 view .LVU404
	cmpl	%r14d, %r10d
	jge	.L302
	.loc 2 75 5 view .LVU405
	movl	%r14d, %r8d
	movl	%r13d, %edx
	call	_Z5get_yP4treeii.part.1
.LVL129:
	.loc 2 75 5 is_stmt 0 view .LVU406
	movl	%eax, %ebp
.LVL130:
.L104:
	.loc 2 75 5 view .LVU407
.LBE763:
.LBE762:
.LBB767:
.LBI767:
	.loc 2 17 41 is_stmt 1 view .LVU408
.LBB768:
	.loc 2 18 9 view .LVU409
	testl	%ebp, %ebp
	movq	16(%rdi), %rcx
	jle	.L102
	.loc 2 18 28 view .LVU410
.LVL131:
	.loc 2 18 28 is_stmt 0 view .LVU411
.LBE768:
.LBE767:
	.loc 2 82 5 is_stmt 1 view .LVU412
	testq	%rcx, %rcx
	je	.L105
	.loc 2 83 9 view .LVU413
.LVL132:
.LBB769:
.LBI769:
	.loc 2 71 5 view .LVU414
.LBB770:
	.loc 2 72 5 view .LVU415
	.loc 2 75 5 view .LVU416
	cmpl	%r14d, %r10d
	jle	.L105
.LVL133:
.L177:
	.loc 2 75 5 is_stmt 0 view .LVU417
	movl	%esi, %r8d
	movl	%r14d, %edx
	call	_Z5get_yP4treeii.part.1
.LVL134:
	.loc 2 75 5 view .LVU418
.LBE770:
.LBE769:
.LBB772:
.LBI772:
	.loc 2 17 41 is_stmt 1 view .LVU419
.LBB773:
	.loc 2 18 9 view .LVU420
	cmpl	%ebp, %eax
	cmovg	%eax, %ebp
.LVL135:
.L105:
	.loc 2 18 9 is_stmt 0 view .LVU421
.LBE773:
.LBE772:
.LBE760:
.LBE759:
.LBE758:
.LBE757:
.LBE789:
.LBE796:
.LBE803:
.LBE812:
.LBE842:
.LBE859:
.LBE878:
.LBE896:
.LBE1250:
.LBE1260:
	.loc 2 18 9 is_stmt 1 view .LVU422
	cmpl	%ebp, %r12d
	cmovl	%ebp, %r12d
.LVL136:
.L101:
.LBB1261:
.LBB1251:
.LBB897:
.LBB879:
.LBB860:
.LBB843:
.LBB813:
.LBI813:
	.loc 2 17 41 view .LVU423
.LBB814:
	.loc 2 18 9 view .LVU424
	cmpl	%r9d, %r12d
	jle	.L69
.LVL137:
.L202:
	.loc 2 18 9 is_stmt 0 view .LVU425
	movl	%r12d, %r9d
.LVL138:
	.p2align 4,,10
.L67:
	.loc 2 18 9 view .LVU426
.LBE814:
.LBE813:
.LBE843:
.LBE860:
.LBE879:
.LBE897:
	.loc 2 82 5 is_stmt 1 view .LVU427
	.loc 2 82 15 is_stmt 0 view .LVU428
	movq	16(%rbx), %rbx
.LVL139:
	.loc 2 82 5 view .LVU429
	testq	%rbx, %rbx
	je	.L64
.L315:
	.loc 2 83 9 is_stmt 1 view .LVU430
.LVL140:
.LBB898:
.LBI898:
	.loc 2 71 5 view .LVU431
.LBB899:
	.loc 2 72 5 view .LVU432
	.loc 2 75 5 view .LVU433
	cmpl	%esi, %r10d
	jle	.L64
.LVL141:
.LBB900:
.LBB901:
	.loc 2 78 5 view .LVU434
	.loc 2 78 16 is_stmt 0 view .LVU435
	leal	(%r11,%rsi), %eax
	.loc 2 80 15 view .LVU436
	movq	8(%rbx), %rbp
	.loc 2 78 9 view .LVU437
	movl	%eax, %edi
	shrl	$31, %edi
	addl	%eax, %edi
	sarl	%edi
.LVL142:
	.loc 2 79 5 is_stmt 1 view .LVU438
.LBB902:
.LBI902:
	.loc 2 15 36 view .LVU439
	.loc 2 15 36 is_stmt 0 view .LVU440
.LBE902:
	.loc 2 80 5 is_stmt 1 view .LVU441
	testq	%rbp, %rbp
	je	.L107
	.loc 2 81 9 view .LVU442
.LVL143:
.LBB903:
.LBI903:
	.loc 2 71 5 view .LVU443
.LBB904:
	.loc 2 72 5 view .LVU444
	cmpl	%edi, %r10d
	jge	.L303
	.loc 2 75 5 view .LVU445
.LVL144:
.LBB905:
.LBB906:
	.loc 2 78 5 view .LVU446
	.loc 2 78 16 is_stmt 0 view .LVU447
	leal	(%rsi,%rdi), %edx
	.loc 2 80 15 view .LVU448
	movq	8(%rbp), %r13
	.loc 2 78 9 view .LVU449
	movl	%edx, %eax
	shrl	$31, %eax
	addl	%edx, %eax
	sarl	%eax
	.loc 2 80 5 view .LVU450
	testq	%r13, %r13
	.loc 2 78 9 view .LVU451
	movl	%eax, %r12d
.LVL145:
	.loc 2 79 5 is_stmt 1 view .LVU452
.LBB907:
.LBI907:
	.loc 2 15 36 view .LVU453
	.loc 2 15 36 is_stmt 0 view .LVU454
.LBE907:
	.loc 2 80 5 is_stmt 1 view .LVU455
	je	.L304
	.loc 2 81 9 view .LVU456
.LVL146:
.LBB908:
.LBI908:
	.loc 2 71 5 view .LVU457
.LBB909:
	.loc 2 72 5 view .LVU458
	cmpl	%eax, %r10d
	jge	.L305
	.loc 2 75 5 view .LVU459
.LVL147:
.LBB910:
.LBB911:
	.loc 2 78 5 view .LVU460
	.loc 2 78 16 is_stmt 0 view .LVU461
	leal	(%rsi,%rax), %eax
.LVL148:
	.loc 2 80 15 view .LVU462
	movq	8(%r13), %rcx
	.loc 2 78 9 view .LVU463
	movl	%eax, %r14d
	shrl	$31, %r14d
	addl	%eax, %r14d
	sarl	%r14d
.LVL149:
	.loc 2 79 5 is_stmt 1 view .LVU464
.LBB912:
.LBI912:
	.loc 2 15 36 view .LVU465
	.loc 2 15 36 is_stmt 0 view .LVU466
.LBE912:
	.loc 2 80 5 is_stmt 1 view .LVU467
	testq	%rcx, %rcx
	je	.L113
	.loc 2 81 9 view .LVU468
.LVL150:
.LBB913:
.LBI913:
	.loc 2 71 5 view .LVU469
.LBB914:
	.loc 2 72 5 view .LVU470
	cmpl	%r14d, %r10d
	jge	.L306
	.loc 2 75 5 view .LVU471
	movl	%esi, %edx
	movl	%r14d, %r8d
	call	_Z5get_yP4treeii.part.1
.LVL151:
	.loc 2 75 5 is_stmt 0 view .LVU472
	movl	%eax, %esi
.LVL152:
.L115:
	.loc 2 75 5 view .LVU473
.LBE914:
.LBE913:
.LBB918:
.LBI918:
	.loc 2 17 41 is_stmt 1 view .LVU474
.LBB919:
	.loc 2 18 9 view .LVU475
	testl	%esi, %esi
	jle	.L113
	movq	16(%r13), %rcx
	.loc 2 18 28 view .LVU476
.LVL153:
	.loc 2 18 28 is_stmt 0 view .LVU477
.LBE919:
.LBE918:
	.loc 2 82 5 is_stmt 1 view .LVU478
	movq	16(%rbp), %r13
	testq	%rcx, %rcx
	je	.L307
	.loc 2 83 9 view .LVU479
.LVL154:
.LBB920:
.LBI920:
	.loc 2 71 5 view .LVU480
.LBB921:
	.loc 2 72 5 view .LVU481
	.loc 2 75 5 view .LVU482
	cmpl	%r14d, %r10d
	jle	.L118
.LVL155:
.L117:
	.loc 2 75 5 is_stmt 0 view .LVU483
	movl	%r12d, %r8d
	movl	%r14d, %edx
	call	_Z5get_yP4treeii.part.1
.LVL156:
	.loc 2 75 5 view .LVU484
.LBE921:
.LBE920:
.LBE911:
.LBE910:
.LBE909:
.LBE908:
.LBE906:
.LBE905:
.LBE904:
.LBE903:
.LBE901:
.LBE900:
.LBE899:
.LBE898:
.LBE1251:
.LBE1261:
	.loc 2 18 9 is_stmt 1 view .LVU485
	cmpl	%eax, %esi
	cmovl	%eax, %esi
.LVL157:
.L112:
.LBB1262:
.LBB1252:
.LBB1212:
.LBB1195:
.LBB1178:
.LBB1161:
.LBB1029:
.LBB1014:
.LBB998:
.LBB984:
.LBB934:
.LBI934:
	.loc 2 17 41 view .LVU486
.LBB935:
	.loc 2 18 9 view .LVU487
	testl	%esi, %esi
	jle	.L110
	.loc 2 18 28 view .LVU488
.LVL158:
	.loc 2 18 28 is_stmt 0 view .LVU489
.LBE935:
.LBE934:
	.loc 2 82 5 is_stmt 1 view .LVU490
	testq	%r13, %r13
	je	.L154
	.loc 2 83 9 view .LVU491
.LVL159:
.LBB938:
.LBI938:
	.loc 2 71 5 view .LVU492
.LBB939:
	.loc 2 72 5 view .LVU493
	.loc 2 75 5 view .LVU494
	cmpl	%r12d, %r10d
	jle	.L190
.LVL160:
.L120:
.LBB940:
.LBB941:
	.loc 2 78 5 view .LVU495
	.loc 2 78 16 is_stmt 0 view .LVU496
	leal	(%rdi,%r12), %eax
	.loc 2 80 15 view .LVU497
	movq	8(%r13), %rcx
	.loc 2 78 9 view .LVU498
	movl	%eax, %ebp
.LVL161:
	.loc 2 78 9 view .LVU499
	shrl	$31, %ebp
	addl	%eax, %ebp
	sarl	%ebp
.LVL162:
	.loc 2 79 5 is_stmt 1 view .LVU500
.LBB942:
.LBI942:
	.loc 2 15 36 view .LVU501
	.loc 2 15 36 is_stmt 0 view .LVU502
.LBE942:
	.loc 2 80 5 is_stmt 1 view .LVU503
	testq	%rcx, %rcx
	je	.L308
	.loc 2 81 9 view .LVU504
.LVL163:
.LBB943:
.LBI943:
	.loc 2 71 5 view .LVU505
.LBB944:
	.loc 2 72 5 view .LVU506
	cmpl	%ebp, %r10d
	jge	.L309
	.loc 2 75 5 view .LVU507
	movl	%r12d, %edx
	movl	%ebp, %r8d
	call	_Z5get_yP4treeii.part.1
.LVL164:
	.loc 2 75 5 is_stmt 0 view .LVU508
	movl	%eax, %r12d
.LVL165:
.L124:
	.loc 2 75 5 view .LVU509
.LBE944:
.LBE943:
.LBB948:
.LBI948:
	.loc 2 17 41 is_stmt 1 view .LVU510
.LBB949:
	.loc 2 18 9 view .LVU511
	testl	%r12d, %r12d
	movq	16(%r13), %rcx
	jle	.L122
	.loc 2 18 28 view .LVU512
.LVL166:
	.loc 2 18 28 is_stmt 0 view .LVU513
.LBE949:
.LBE948:
	.loc 2 82 5 is_stmt 1 view .LVU514
	testq	%rcx, %rcx
	je	.L125
	.loc 2 83 9 view .LVU515
.LVL167:
.LBB950:
.LBI950:
	.loc 2 71 5 view .LVU516
.LBB951:
	.loc 2 72 5 view .LVU517
	.loc 2 75 5 view .LVU518
	cmpl	%ebp, %r10d
	jle	.L125
	movl	%edi, %r8d
	movl	%ebp, %edx
	call	_Z5get_yP4treeii.part.1
.LVL168:
	.loc 2 75 5 is_stmt 0 view .LVU519
.LBE951:
.LBE950:
.LBE941:
.LBE940:
.LBE939:
.LBE938:
.LBE984:
.LBE998:
.LBE1014:
.LBE1029:
.LBE1161:
.LBE1178:
.LBE1195:
.LBE1212:
.LBE1252:
.LBE1262:
	.loc 2 18 9 is_stmt 1 view .LVU520
	cmpl	%eax, %r12d
	cmovl	%eax, %r12d
.LVL169:
.LBB1263:
.LBB1253:
.LBB1213:
.LBB1196:
.LBB1179:
.LBB1162:
.LBB1030:
.LBB1015:
.LBB999:
.LBB985:
.LBB966:
.LBI966:
	.loc 2 17 41 view .LVU521
.LBB967:
	.loc 2 18 9 view .LVU522
	cmpl	%r12d, %esi
	jge	.L109
	movl	%r12d, %esi
.LVL170:
	.p2align 4,,10
.L176:
	.loc 2 18 9 is_stmt 0 view .LVU523
.LBE967:
.LBE966:
.LBE985:
.LBE999:
.LBE1015:
.LBE1030:
.LBB1031:
.LBB1032:
	.loc 2 18 28 is_stmt 1 view .LVU524
	.loc 2 18 28 is_stmt 0 view .LVU525
.LBE1032:
.LBE1031:
	.loc 2 82 5 is_stmt 1 view .LVU526
	.loc 2 82 15 is_stmt 0 view .LVU527
	movq	16(%rbx), %rbx
.LVL171:
	.loc 2 82 5 view .LVU528
	testq	%rbx, %rbx
	je	.L127
	.loc 2 83 9 is_stmt 1 view .LVU529
.LVL172:
.LBB1038:
.LBI1038:
	.loc 2 71 5 view .LVU530
.LBB1039:
	.loc 2 72 5 view .LVU531
	.loc 2 75 5 view .LVU532
	cmpl	%edi, %r10d
	movl	%esi, %r12d
	jle	.L128
.LVL173:
	.p2align 4,,10
.L175:
.LBB1040:
.LBB1041:
	.loc 2 78 5 view .LVU533
	.loc 2 78 16 is_stmt 0 view .LVU534
	leal	(%r11,%rdi), %eax
	.loc 2 80 15 view .LVU535
	movq	8(%rbx), %rsi
	.loc 2 78 9 view .LVU536
	movl	%eax, %ebp
	shrl	$31, %ebp
	addl	%eax, %ebp
	sarl	%ebp
.LVL174:
	.loc 2 79 5 is_stmt 1 view .LVU537
.LBB1042:
.LBI1042:
	.loc 2 15 36 view .LVU538
	.loc 2 15 36 is_stmt 0 view .LVU539
.LBE1042:
	.loc 2 80 5 is_stmt 1 view .LVU540
	testq	%rsi, %rsi
	je	.L129
	.loc 2 81 9 view .LVU541
.LVL175:
.LBB1043:
.LBI1043:
	.loc 2 71 5 view .LVU542
.LBB1044:
	.loc 2 72 5 view .LVU543
	cmpl	%ebp, %r10d
	jge	.L310
	.loc 2 75 5 view .LVU544
.LVL176:
.LBB1045:
.LBB1046:
	.loc 2 78 5 view .LVU545
	.loc 2 78 16 is_stmt 0 view .LVU546
	leal	(%rdi,%rbp), %eax
	.loc 2 80 15 view .LVU547
	movq	8(%rsi), %rcx
	.loc 2 78 9 view .LVU548
	movl	%eax, %r13d
	shrl	$31, %r13d
	addl	%eax, %r13d
	sarl	%r13d
.LVL177:
	.loc 2 79 5 is_stmt 1 view .LVU549
.LBB1047:
.LBI1047:
	.loc 2 15 36 view .LVU550
	.loc 2 15 36 is_stmt 0 view .LVU551
.LBE1047:
	.loc 2 80 5 is_stmt 1 view .LVU552
	testq	%rcx, %rcx
	je	.L311
	.loc 2 81 9 view .LVU553
.LVL178:
.LBB1048:
.LBI1048:
	.loc 2 71 5 view .LVU554
.LBB1049:
	.loc 2 72 5 view .LVU555
	cmpl	%r13d, %r10d
	jge	.L312
	.loc 2 75 5 view .LVU556
	movl	%edi, %edx
	movl	%r13d, %r8d
	call	_Z5get_yP4treeii.part.1
.LVL179:
	.loc 2 75 5 is_stmt 0 view .LVU557
	movl	%eax, %edi
.LVL180:
.L134:
	.loc 2 75 5 view .LVU558
.LBE1049:
.LBE1048:
.LBB1053:
.LBI1053:
	.loc 2 17 41 is_stmt 1 view .LVU559
.LBB1054:
	.loc 2 18 9 view .LVU560
	testl	%edi, %edi
	movq	16(%rsi), %rcx
	jle	.L132
	.loc 2 18 28 view .LVU561
.LVL181:
	.loc 2 18 28 is_stmt 0 view .LVU562
.LBE1054:
.LBE1053:
	.loc 2 82 5 is_stmt 1 view .LVU563
	testq	%rcx, %rcx
	je	.L194
	.loc 2 83 9 view .LVU564
.LVL182:
.LBB1055:
.LBI1055:
	.loc 2 71 5 view .LVU565
.LBB1056:
	.loc 2 72 5 view .LVU566
	.loc 2 75 5 view .LVU567
	cmpl	%r13d, %r10d
	jle	.L194
.LVL183:
.L137:
	.loc 2 75 5 is_stmt 0 view .LVU568
	movl	%ebp, %r8d
	movl	%r13d, %edx
	call	_Z5get_yP4treeii.part.1
.LVL184:
	.loc 2 75 5 view .LVU569
.LBE1056:
.LBE1055:
.LBE1046:
.LBE1045:
.LBE1044:
.LBE1043:
.LBE1041:
.LBE1040:
.LBE1039:
.LBE1038:
.LBE1162:
.LBE1179:
.LBE1196:
.LBE1213:
.LBE1253:
.LBE1263:
	.loc 2 18 9 is_stmt 1 view .LVU570
	cmpl	%eax, %edi
	cmovge	%edi, %eax
	movl	%eax, %esi
.LVL185:
.L131:
.LBB1264:
.LBB1254:
.LBB1214:
.LBB1197:
.LBB1180:
.LBB1163:
.LBB1133:
.LBB1125:
.LBB1118:
.LBB1111:
.LBB1069:
.LBI1069:
	.loc 2 17 41 view .LVU571
.LBB1070:
	.loc 2 18 9 view .LVU572
	testl	%esi, %esi
	jle	.L129
	.loc 2 18 28 view .LVU573
.LVL186:
	.loc 2 18 28 is_stmt 0 view .LVU574
.LBE1070:
.LBE1069:
	.loc 2 82 5 is_stmt 1 view .LVU575
	.loc 2 82 15 is_stmt 0 view .LVU576
	movq	16(%rbx), %rbx
.LVL187:
	.loc 2 82 5 view .LVU577
	testq	%rbx, %rbx
	je	.L139
	.loc 2 83 9 is_stmt 1 view .LVU578
.LVL188:
.LBB1071:
.LBI1071:
	.loc 2 71 5 view .LVU579
.LBB1072:
	.loc 2 72 5 view .LVU580
	.loc 2 75 5 view .LVU581
	cmpl	%ebp, %r10d
	movl	%esi, %edi
	jle	.L194
.LVL189:
.L174:
.LBB1073:
.LBB1074:
	.loc 2 78 5 view .LVU582
	.loc 2 78 16 is_stmt 0 view .LVU583
	leal	(%r11,%rbp), %eax
	.loc 2 80 15 view .LVU584
	movq	8(%rbx), %rcx
	.loc 2 78 9 view .LVU585
	movl	%eax, %r13d
	shrl	$31, %r13d
	addl	%eax, %r13d
	sarl	%r13d
.LVL190:
	.loc 2 79 5 is_stmt 1 view .LVU586
.LBB1075:
.LBI1075:
	.loc 2 15 36 view .LVU587
	.loc 2 15 36 is_stmt 0 view .LVU588
.LBE1075:
	.loc 2 80 5 is_stmt 1 view .LVU589
	testq	%rcx, %rcx
	je	.L313
	.loc 2 81 9 view .LVU590
.LVL191:
.LBB1076:
.LBI1076:
	.loc 2 71 5 view .LVU591
.LBB1077:
	.loc 2 72 5 view .LVU592
	cmpl	%r13d, %r10d
	jge	.L314
	.loc 2 75 5 view .LVU593
	movl	%r13d, %r8d
	movl	%ebp, %edx
	call	_Z5get_yP4treeii.part.1
.LVL192:
	.loc 2 75 5 is_stmt 0 view .LVU594
	movl	%eax, %esi
.L143:
.LVL193:
	.loc 2 75 5 view .LVU595
.LBE1077:
.LBE1076:
.LBB1081:
.LBI1081:
	.loc 2 17 41 is_stmt 1 view .LVU596
.LBB1082:
	.loc 2 18 9 view .LVU597
	testl	%esi, %esi
	movq	16(%rbx), %rcx
	jle	.L141
	.loc 2 18 28 view .LVU598
.LVL194:
	.loc 2 18 28 is_stmt 0 view .LVU599
.LBE1082:
.LBE1081:
	.loc 2 82 5 is_stmt 1 view .LVU600
	testq	%rcx, %rcx
	je	.L144
	.loc 2 83 9 view .LVU601
.LVL195:
.LBB1083:
.LBI1083:
	.loc 2 71 5 view .LVU602
.LBB1084:
	.loc 2 72 5 view .LVU603
	.loc 2 75 5 view .LVU604
	cmpl	%r13d, %r10d
	jle	.L144
.LVL196:
.L173:
	.loc 2 75 5 is_stmt 0 view .LVU605
	movl	%r11d, %r8d
	movl	%r13d, %edx
	call	_Z5get_yP4treeii.part.1
.LVL197:
	.loc 2 75 5 view .LVU606
.LBE1084:
.LBE1083:
.LBB1087:
.LBI1087:
	.loc 2 17 41 is_stmt 1 view .LVU607
.LBB1088:
	.loc 2 18 9 view .LVU608
	cmpl	%eax, %esi
	cmovl	%eax, %esi
.LVL198:
.L144:
	.loc 2 18 9 is_stmt 0 view .LVU609
.LBE1088:
.LBE1087:
.LBE1074:
.LBE1073:
.LBE1072:
.LBE1071:
.LBB1102:
.LBI1102:
	.loc 2 17 41 is_stmt 1 view .LVU610
.LBB1103:
	.loc 2 18 9 view .LVU611
	cmpl	%edi, %esi
	jle	.L194
.LVL199:
.L139:
	.loc 2 18 9 is_stmt 0 view .LVU612
.LBE1103:
.LBE1102:
.LBE1111:
.LBE1118:
.LBE1125:
.LBE1133:
.LBB1134:
.LBI1134:
	.loc 2 17 41 is_stmt 1 view .LVU613
.LBB1135:
	.loc 2 18 9 view .LVU614
	cmpl	%r12d, %esi
	jle	.L128
.LVL200:
.L127:
	.loc 2 18 9 is_stmt 0 view .LVU615
.LBE1135:
.LBE1134:
.LBE1163:
.LBE1180:
.LBE1197:
.LBE1214:
.LBE1254:
.LBE1264:
	.loc 2 18 9 is_stmt 1 view .LVU616
	cmpl	%esi, %r9d
	cmovl	%esi, %r9d
.LVL201:
	.loc 2 18 9 is_stmt 0 view .LVU617
	jmp	.L64
.LVL202:
	.p2align 4,,10
.L290:
.LBB1265:
.LBB1255:
.LBB1215:
.LBB880:
	.loc 2 73 9 is_stmt 1 view .LVU618
.LBB861:
.LBI861:
	.loc 2 21 36 view .LVU619
.LBB862:
	.loc 2 21 57 view .LVU620
	.loc 2 21 64 is_stmt 0 view .LVU621
	movl	(%rdi), %r9d
.LVL203:
.L69:
	.loc 2 21 64 view .LVU622
.LBE862:
.LBE861:
.LBE880:
.LBE1215:
.LBB1216:
.LBI1216:
	.loc 2 17 41 is_stmt 1 view .LVU623
.LBB1217:
	.loc 2 18 9 view .LVU624
.LBE1217:
.LBE1216:
	.loc 2 82 15 is_stmt 0 view .LVU625
	movq	16(%rbx), %rbx
.LVL204:
.LBB1219:
.LBB588:
	.loc 2 15 70 view .LVU626
	testl	%r9d, %r9d
	movl	$0, %eax
	cmovle	%eax, %r9d
.LVL205:
	.loc 2 15 70 view .LVU627
.LBE588:
.LBE1219:
	.loc 2 82 5 is_stmt 1 view .LVU628
	testq	%rbx, %rbx
	jne	.L315
	jmp	.L64
.LVL206:
	.p2align 4,,10
.L303:
.LBB1220:
.LBB1198:
.LBB1181:
.LBB1164:
.LBB1136:
.LBB1016:
	.loc 2 73 9 view .LVU629
.LBB1000:
.LBI1000:
	.loc 2 21 36 view .LVU630
.LBB1001:
	.loc 2 21 57 view .LVU631
	.loc 2 21 64 is_stmt 0 view .LVU632
	movl	0(%rbp), %esi
.LVL207:
.L109:
	.loc 2 21 64 view .LVU633
.LBE1001:
.LBE1000:
.LBE1016:
.LBE1136:
.LBB1137:
.LBI1031:
	.loc 2 17 41 is_stmt 1 view .LVU634
.LBB1033:
	.loc 2 18 9 view .LVU635
	testl	%esi, %esi
	jg	.L176
.LVL208:
.L107:
	.loc 2 18 9 is_stmt 0 view .LVU636
.LBE1033:
.LBE1137:
	.loc 2 82 5 is_stmt 1 view .LVU637
	.loc 2 82 15 is_stmt 0 view .LVU638
	movq	16(%rbx), %rbx
.LVL209:
	.loc 2 82 5 view .LVU639
	testq	%rbx, %rbx
	je	.L64
	.loc 2 83 9 is_stmt 1 view .LVU640
.LVL210:
.LBB1138:
	.loc 2 71 5 view .LVU641
.LBB1126:
	.loc 2 72 5 view .LVU642
	.loc 2 75 5 view .LVU643
	xorl	%r12d, %r12d
	cmpl	%edi, %r10d
	jg	.L175
	jmp	.L64
.LVL211:
	.p2align 4,,10
.L291:
	.loc 2 75 5 is_stmt 0 view .LVU644
.LBE1126:
.LBE1138:
.LBE1164:
.LBE1181:
.LBE1198:
.LBE1220:
.LBB1221:
.LBB881:
.LBB863:
.LBB844:
.LBB815:
.LBB703:
	.loc 2 73 9 is_stmt 1 view .LVU645
.LBB688:
.LBI688:
	.loc 2 21 36 view .LVU646
.LBB689:
	.loc 2 21 57 view .LVU647
	.loc 2 21 64 is_stmt 0 view .LVU648
	movl	(%r12), %r9d
.LVL212:
.L72:
	.loc 2 21 64 view .LVU649
.LBE689:
.LBE688:
.LBE703:
.LBE815:
.LBB816:
.LBI717:
	.loc 2 17 41 is_stmt 1 view .LVU650
.LBB719:
	.loc 2 18 9 view .LVU651
	testl	%r9d, %r9d
	jg	.L90
.LVL213:
.L70:
	.loc 2 18 9 is_stmt 0 view .LVU652
.LBE719:
.LBE816:
	.loc 2 82 5 is_stmt 1 view .LVU653
	.loc 2 82 15 is_stmt 0 view .LVU654
	movq	16(%rdi), %rdi
.LVL214:
.LBB817:
.LBB804:
	.loc 2 75 5 view .LVU655
	xorl	%r9d, %r9d
.LBE804:
.LBE817:
	.loc 2 82 5 view .LVU656
	testq	%rdi, %rdi
	je	.L64
	.loc 2 83 9 is_stmt 1 view .LVU657
.LVL215:
.LBB818:
	.loc 2 71 5 view .LVU658
.LBB805:
	.loc 2 72 5 view .LVU659
	.loc 2 75 5 view .LVU660
	cmpl	%ebp, %r10d
	jg	.L91
	jmp	.L64
.LVL216:
.L125:
	.loc 2 75 5 is_stmt 0 view .LVU661
.LBE805:
.LBE818:
.LBE844:
.LBE863:
.LBE881:
.LBE1221:
.LBB1222:
.LBB1199:
.LBB1182:
.LBB1165:
.LBB1139:
.LBB1017:
.LBB1002:
.LBB986:
.LBB970:
	.loc 2 17 41 is_stmt 1 view .LVU662
.LBB968:
	.loc 2 18 9 view .LVU663
	cmpl	%r12d, %esi
	jge	.L190
	movl	%r12d, %esi
.LVL217:
.L154:
	.loc 2 18 9 is_stmt 0 view .LVU664
.LBE968:
.LBE970:
.LBE986:
.LBE1002:
.LBE1017:
.LBE1139:
.LBB1140:
.LBB1034:
	.loc 2 18 28 is_stmt 1 view .LVU665
	.loc 2 18 28 is_stmt 0 view .LVU666
.LBE1034:
.LBE1140:
	.loc 2 82 5 is_stmt 1 view .LVU667
	cmpq	$0, 16(%rbx)
	je	.L127
	movl	%esi, %r12d
.LVL218:
.L128:
	.loc 2 82 5 is_stmt 0 view .LVU668
	movl	%r12d, %esi
	jmp	.L127
.LVL219:
.L129:
.LBB1141:
.LBB1127:
.LBB1119:
.LBB1112:
	.loc 2 82 5 is_stmt 1 view .LVU669
	.loc 2 82 15 is_stmt 0 view .LVU670
	movq	16(%rbx), %rbx
.LVL220:
	.loc 2 82 5 view .LVU671
	testq	%rbx, %rbx
	je	.L128
	.loc 2 83 9 is_stmt 1 view .LVU672
.LVL221:
.LBB1104:
	.loc 2 71 5 view .LVU673
.LBB1098:
	.loc 2 72 5 view .LVU674
	.loc 2 75 5 view .LVU675
	xorl	%edi, %edi
	cmpl	%ebp, %r10d
	movl	%r12d, %esi
	jg	.L174
	jmp	.L127
.LVL222:
	.p2align 4,,10
.L93:
	.loc 2 75 5 is_stmt 0 view .LVU676
.LBE1098:
.LBE1104:
.LBE1112:
.LBE1119:
.LBE1127:
.LBE1141:
.LBE1165:
.LBE1182:
.LBE1199:
.LBE1222:
.LBB1223:
.LBB882:
.LBB864:
.LBB845:
.LBB819:
.LBB806:
.LBB797:
.LBB790:
	.loc 2 82 5 is_stmt 1 view .LVU677
	.loc 2 82 15 is_stmt 0 view .LVU678
	movq	16(%rdi), %rdi
.LVL223:
	.loc 2 82 5 view .LVU679
	testq	%rdi, %rdi
	je	.L69
	.loc 2 83 9 is_stmt 1 view .LVU680
.LVL224:
.LBB783:
	.loc 2 71 5 view .LVU681
.LBB780:
	.loc 2 72 5 view .LVU682
	.loc 2 75 5 view .LVU683
	xorl	%r12d, %r12d
	cmpl	%r13d, %r10d
	jg	.L159
	jmp	.L69
.LVL225:
.L292:
	.loc 2 75 5 is_stmt 0 view .LVU684
	movq	16(%r12), %r14
.LVL226:
.L73:
	.loc 2 75 5 view .LVU685
.LBE780:
.LBE783:
.LBE790:
.LBE797:
.LBE806:
.LBE819:
.LBB820:
.LBB704:
.LBB690:
.LBB675:
	.loc 2 82 5 is_stmt 1 view .LVU686
.LBB661:
.LBB652:
	.loc 2 75 5 is_stmt 0 view .LVU687
	xorl	%r9d, %r9d
.LBE652:
.LBE661:
	.loc 2 82 5 view .LVU688
	testq	%r14, %r14
	je	.L64
	.loc 2 83 9 is_stmt 1 view .LVU689
.LVL227:
.LBB662:
	.loc 2 71 5 view .LVU690
.LBB653:
	.loc 2 72 5 view .LVU691
	.loc 2 75 5 view .LVU692
	cmpl	%r13d, %r10d
	jg	.L83
	jmp	.L64
.LVL228:
.L304:
	.loc 2 75 5 is_stmt 0 view .LVU693
	movq	16(%rbp), %r13
.LVL229:
.L110:
	.loc 2 75 5 view .LVU694
.LBE653:
.LBE662:
.LBE675:
.LBE690:
.LBE704:
.LBE820:
.LBE845:
.LBE864:
.LBE882:
.LBE1223:
.LBB1224:
.LBB1200:
.LBB1183:
.LBB1166:
.LBB1142:
.LBB1018:
.LBB1003:
.LBB987:
	.loc 2 82 5 is_stmt 1 view .LVU695
	testq	%r13, %r13
	je	.L64
	.loc 2 83 9 view .LVU696
.LVL230:
.LBB971:
	.loc 2 71 5 view .LVU697
.LBB959:
	.loc 2 72 5 view .LVU698
	.loc 2 75 5 view .LVU699
	xorl	%esi, %esi
	cmpl	%r12d, %r10d
	jg	.L120
	jmp	.L64
.LVL231:
.L293:
	.loc 2 75 5 is_stmt 0 view .LVU700
.LBE959:
.LBE971:
.LBE987:
.LBE1003:
.LBE1018:
.LBE1142:
.LBE1166:
.LBE1183:
.LBE1200:
.LBE1224:
.LBB1225:
.LBB883:
.LBB865:
.LBB846:
.LBB821:
.LBB705:
.LBB691:
.LBB676:
.LBB663:
.LBB624:
	.loc 2 73 9 is_stmt 1 view .LVU701
.LBB620:
.LBI620:
	.loc 2 21 36 view .LVU702
.LBB621:
	.loc 2 21 57 view .LVU703
	.loc 2 21 64 is_stmt 0 view .LVU704
	movl	(%r14), %r9d
.LVL232:
	.loc 2 21 64 view .LVU705
	movq	16(%r12), %r14
	jmp	.L75
.LVL233:
.L305:
	.loc 2 21 64 view .LVU706
.LBE621:
.LBE620:
.LBE624:
.LBE663:
.LBE676:
.LBE691:
.LBE705:
.LBE821:
.LBE846:
.LBE865:
.LBE883:
.LBE1225:
.LBB1226:
.LBB1201:
.LBB1184:
.LBB1167:
.LBB1143:
.LBB1019:
.LBB1004:
.LBB988:
.LBB972:
.LBB931:
	.loc 2 73 9 is_stmt 1 view .LVU707
.LBB927:
.LBI927:
	.loc 2 21 36 view .LVU708
.LBB928:
	.loc 2 21 57 view .LVU709
	.loc 2 21 64 is_stmt 0 view .LVU710
	movl	0(%r13), %esi
.LVL234:
	.loc 2 21 64 view .LVU711
	movq	16(%rbp), %r13
	jmp	.L112
.LVL235:
.L310:
	.loc 2 21 64 view .LVU712
.LBE928:
.LBE927:
.LBE931:
.LBE972:
.LBE988:
.LBE1004:
.LBE1019:
.LBE1143:
.LBB1144:
.LBB1128:
.LBB1120:
.LBB1113:
.LBB1105:
.LBB1066:
	.loc 2 73 9 is_stmt 1 view .LVU713
.LBB1062:
.LBI1062:
	.loc 2 21 36 view .LVU714
.LBB1063:
	.loc 2 21 57 view .LVU715
	.loc 2 21 64 is_stmt 0 view .LVU716
	movl	(%rsi), %esi
.LVL236:
	.loc 2 21 64 view .LVU717
	jmp	.L131
.LVL237:
.L298:
	.loc 2 21 64 view .LVU718
.LBE1063:
.LBE1062:
.LBE1066:
.LBE1105:
.LBE1113:
.LBE1120:
.LBE1128:
.LBE1144:
.LBE1167:
.LBE1184:
.LBE1201:
.LBE1226:
.LBB1227:
.LBB884:
.LBB866:
.LBB847:
.LBB822:
.LBB807:
.LBB798:
.LBB791:
.LBB784:
.LBB752:
	.loc 2 73 9 is_stmt 1 view .LVU719
.LBB748:
.LBI748:
	.loc 2 21 36 view .LVU720
.LBB749:
	.loc 2 21 57 view .LVU721
	.loc 2 21 64 is_stmt 0 view .LVU722
	movl	(%r14), %r12d
.LVL238:
	.loc 2 21 64 view .LVU723
	jmp	.L95
.LVL239:
.L194:
	.loc 2 21 64 view .LVU724
.LBE749:
.LBE748:
.LBE752:
.LBE784:
.LBE791:
.LBE798:
.LBE807:
.LBE822:
.LBE847:
.LBE866:
.LBE884:
.LBE1227:
.LBB1228:
.LBB1202:
.LBB1185:
.LBB1168:
.LBB1145:
.LBB1129:
.LBB1121:
.LBB1114:
.LBB1106:
.LBB1099:
.LBB1095:
.LBB1092:
.LBB1089:
.LBB1085:
	.loc 2 75 5 view .LVU725
	movl	%edi, %esi
	jmp	.L139
.LVL240:
.L311:
	.loc 2 75 5 view .LVU726
	movq	16(%rsi), %rcx
.LVL241:
.L132:
	.loc 2 75 5 view .LVU727
.LBE1085:
.LBE1089:
.LBE1092:
.LBE1095:
.LBE1099:
.LBE1106:
.LBB1107:
.LBB1067:
.LBB1064:
.LBB1060:
	.loc 2 82 5 is_stmt 1 view .LVU728
	testq	%rcx, %rcx
	je	.L136
	.loc 2 83 9 view .LVU729
.LVL242:
.LBB1058:
	.loc 2 71 5 view .LVU730
.LBB1057:
	.loc 2 72 5 view .LVU731
	.loc 2 75 5 view .LVU732
	cmpl	%r13d, %r10d
	jle	.L136
	xorl	%edi, %edi
	jmp	.L137
.LVL243:
.L299:
	.loc 2 75 5 is_stmt 0 view .LVU733
	movq	16(%r14), %rcx
.L96:
	.loc 2 75 5 view .LVU734
.LBE1057:
.LBE1058:
.LBE1060:
.LBE1064:
.LBE1067:
.LBE1107:
.LBE1114:
.LBE1121:
.LBE1129:
.LBE1145:
.LBE1168:
.LBE1185:
.LBE1202:
.LBE1228:
.LBB1229:
.LBB885:
.LBB867:
.LBB848:
.LBB823:
.LBB808:
.LBB799:
.LBB792:
.LBB785:
.LBB753:
.LBB750:
.LBB746:
	.loc 2 82 5 is_stmt 1 view .LVU735
	testq	%rcx, %rcx
	je	.L69
	.loc 2 83 9 view .LVU736
.LVL244:
.LBB744:
	.loc 2 71 5 view .LVU737
.LBB743:
	.loc 2 72 5 view .LVU738
	.loc 2 75 5 view .LVU739
	cmpl	%r15d, %r10d
	jle	.L69
	xorl	%r12d, %r12d
	jmp	.L100
.LVL245:
.L313:
	.loc 2 75 5 is_stmt 0 view .LVU740
	movq	16(%rbx), %rcx
.L141:
	.loc 2 75 5 view .LVU741
.LBE743:
.LBE744:
.LBE746:
.LBE750:
.LBE753:
.LBE785:
.LBE792:
.LBE799:
.LBE808:
.LBE823:
.LBE848:
.LBE867:
.LBE885:
.LBE1229:
.LBB1230:
.LBB1203:
.LBB1186:
.LBB1169:
.LBB1146:
.LBB1130:
.LBB1122:
.LBB1115:
.LBB1108:
.LBB1100:
.LBB1096:
.LBB1093:
	.loc 2 82 5 is_stmt 1 view .LVU742
	testq	%rcx, %rcx
	je	.L194
	.loc 2 83 9 view .LVU743
.LVL246:
.LBB1090:
	.loc 2 71 5 view .LVU744
.LBB1086:
	.loc 2 72 5 view .LVU745
	.loc 2 75 5 view .LVU746
	cmpl	%r13d, %r10d
	jle	.L194
	xorl	%esi, %esi
	jmp	.L173
.LVL247:
.L76:
	.loc 2 75 5 is_stmt 0 view .LVU747
.LBE1086:
.LBE1090:
.LBE1093:
.LBE1096:
.LBE1100:
.LBE1108:
.LBE1115:
.LBE1122:
.LBE1130:
.LBE1146:
.LBE1169:
.LBE1186:
.LBE1203:
.LBE1230:
.LBB1231:
.LBB886:
.LBB868:
.LBB849:
.LBB824:
.LBB706:
.LBB692:
.LBB677:
.LBB664:
.LBB625:
.LBB622:
.LBB618:
	.loc 2 82 5 is_stmt 1 view .LVU748
	.loc 2 82 15 is_stmt 0 view .LVU749
	movq	16(%r14), %rcx
.LBB615:
.LBB613:
	.loc 2 75 5 view .LVU750
	xorl	%r9d, %r9d
.LBE613:
.LBE615:
	.loc 2 82 5 view .LVU751
	testq	%rcx, %rcx
	je	.L64
	.loc 2 83 9 is_stmt 1 view .LVU752
.LVL248:
.LBB616:
	.loc 2 71 5 view .LVU753
.LBB614:
	.loc 2 72 5 view .LVU754
	.loc 2 75 5 view .LVU755
	cmpl	%r15d, %r10d
	jle	.L64
	movq	16(%r12), %r14
	jmp	.L80
.LVL249:
.L113:
	.loc 2 75 5 is_stmt 0 view .LVU756
.LBE614:
.LBE616:
.LBE618:
.LBE622:
.LBE625:
.LBE664:
.LBE677:
.LBE692:
.LBE706:
.LBE824:
.LBE849:
.LBE868:
.LBE886:
.LBE1231:
.LBB1232:
.LBB1204:
.LBB1187:
.LBB1170:
.LBB1147:
.LBB1020:
.LBB1005:
.LBB989:
.LBB973:
.LBB932:
.LBB929:
.LBB925:
	.loc 2 82 5 is_stmt 1 view .LVU757
	.loc 2 82 15 is_stmt 0 view .LVU758
	movq	16(%r13), %rcx
	.loc 2 82 5 view .LVU759
	testq	%rcx, %rcx
	je	.L64
	.loc 2 83 9 is_stmt 1 view .LVU760
.LVL250:
.LBB923:
	.loc 2 71 5 view .LVU761
.LBB922:
	.loc 2 72 5 view .LVU762
	.loc 2 75 5 view .LVU763
	cmpl	%r14d, %r10d
	jle	.L64
	xorl	%esi, %esi
	movq	16(%rbp), %r13
	jmp	.L117
.LVL251:
.L308:
	.loc 2 75 5 is_stmt 0 view .LVU764
	movq	16(%r13), %rcx
.LVL252:
.L122:
	.loc 2 75 5 view .LVU765
.LBE922:
.LBE923:
.LBE925:
.LBE929:
.LBE932:
.LBE973:
.LBB974:
.LBB960:
.LBB957:
.LBB955:
	.loc 2 82 5 is_stmt 1 view .LVU766
	testq	%rcx, %rcx
	je	.L109
	.loc 2 83 9 view .LVU767
.LVL253:
.LBB953:
	.loc 2 71 5 view .LVU768
.LBB952:
	.loc 2 72 5 view .LVU769
	.loc 2 75 5 view .LVU770
	cmpl	%ebp, %r10d
	jle	.L109
	movl	%ebp, %edx
	movl	%edi, %r8d
	call	_Z5get_yP4treeii.part.1
.LVL254:
	.loc 2 75 5 is_stmt 0 view .LVU771
.LBE952:
.LBE953:
.LBE955:
.LBE957:
.LBE960:
.LBE974:
.LBE989:
.LBE1005:
.LBE1020:
.LBE1147:
.LBE1170:
.LBE1187:
.LBE1204:
.LBE1232:
.LBE1255:
.LBE1265:
	.loc 2 18 9 is_stmt 1 view .LVU772
	movl	$0, %edx
	testl	%eax, %eax
	cmovs	%edx, %eax
.LVL255:
.LBB1266:
.LBB1256:
.LBB1233:
.LBB1205:
.LBB1188:
.LBB1171:
.LBB1148:
.LBB1021:
.LBB1006:
.LBB990:
.LBB975:
	.loc 2 17 41 view .LVU773
.LBB969:
	.loc 2 18 9 view .LVU774
	cmpl	%eax, %esi
	jge	.L109
.LVL256:
	.loc 2 18 9 is_stmt 0 view .LVU775
.LBE969:
.LBE975:
.LBE990:
.LBE1006:
.LBE1021:
.LBE1148:
.LBB1149:
	.loc 2 17 41 is_stmt 1 view .LVU776
.LBB1035:
	.loc 2 18 9 view .LVU777
.LBE1035:
.LBE1149:
.LBB1150:
.LBB1022:
.LBB1007:
.LBB991:
.LBB976:
.LBB961:
	.loc 2 75 5 is_stmt 0 view .LVU778
	movl	%eax, %esi
	jmp	.L176
.LVL257:
.L296:
	.loc 2 75 5 view .LVU779
	movq	16(%r14), %rcx
.LVL258:
.L85:
	.loc 2 75 5 view .LVU780
.LBE961:
.LBE976:
.LBE991:
.LBE1007:
.LBE1022:
.LBE1150:
.LBE1171:
.LBE1188:
.LBE1205:
.LBE1233:
.LBB1234:
.LBB887:
.LBB869:
.LBB850:
.LBB825:
.LBB707:
.LBB693:
.LBB678:
.LBB665:
.LBB654:
.LBB650:
.LBB648:
	.loc 2 82 5 is_stmt 1 view .LVU781
	testq	%rcx, %rcx
	je	.L72
	.loc 2 83 9 view .LVU782
.LVL259:
.LBB646:
	.loc 2 71 5 view .LVU783
.LBB645:
	.loc 2 72 5 view .LVU784
	.loc 2 75 5 view .LVU785
	cmpl	%r15d, %r10d
	jle	.L72
	movl	%r15d, %edx
	movl	%ebp, %r8d
	call	_Z5get_yP4treeii.part.1
.LVL260:
	.loc 2 75 5 is_stmt 0 view .LVU786
.LBE645:
.LBE646:
.LBE648:
.LBE650:
.LBE654:
.LBE665:
.LBE678:
.LBE693:
.LBE707:
.LBE825:
.LBE850:
.LBE869:
.LBE887:
.LBE1234:
.LBE1256:
.LBE1266:
	.loc 2 18 9 is_stmt 1 view .LVU787
	movl	$0, %edx
	testl	%eax, %eax
	cmovs	%edx, %eax
.LVL261:
.LBB1267:
.LBB1257:
.LBB1235:
.LBB888:
.LBB870:
.LBB851:
.LBB826:
.LBB708:
.LBB694:
.LBB679:
.LBB666:
	.loc 2 17 41 view .LVU788
.LBB659:
	.loc 2 18 9 view .LVU789
	cmpl	%eax, %r9d
	jge	.L72
.LVL262:
.L84:
	.loc 2 18 9 is_stmt 0 view .LVU790
.LBE659:
.LBE666:
.LBE679:
.LBE694:
.LBE708:
.LBE826:
.LBB827:
	.loc 2 17 41 is_stmt 1 view .LVU791
.LBB720:
	.loc 2 18 9 view .LVU792
.LBE720:
.LBE827:
	.loc 2 82 5 is_stmt 0 view .LVU793
	movl	%eax, %r9d
	jmp	.L90
.LVL263:
.L301:
	.loc 2 82 5 view .LVU794
	movq	16(%rdi), %rcx
.LVL264:
.L102:
.LBB828:
.LBB809:
.LBB800:
.LBB793:
.LBB786:
.LBB781:
.LBB778:
.LBB776:
	.loc 2 82 5 is_stmt 1 view .LVU795
	testq	%rcx, %rcx
	je	.L101
	.loc 2 83 9 view .LVU796
.LVL265:
.LBB774:
	.loc 2 71 5 view .LVU797
.LBB771:
	.loc 2 72 5 view .LVU798
	.loc 2 75 5 view .LVU799
	cmpl	%r14d, %r10d
	jle	.L101
	xorl	%ebp, %ebp
	jmp	.L177
.LVL266:
.L81:
	.loc 2 75 5 is_stmt 0 view .LVU800
.LBE771:
.LBE774:
.LBE776:
.LBE778:
.LBE781:
.LBE786:
.LBE793:
.LBE800:
.LBE809:
.LBE828:
.LBB829:
.LBB709:
.LBB695:
.LBB680:
.LBB667:
.LBB629:
	.loc 2 18 28 is_stmt 1 view .LVU801
	.loc 2 18 28 is_stmt 0 view .LVU802
.LBE629:
.LBE667:
	.loc 2 82 5 is_stmt 1 view .LVU803
	cmpq	$0, 16(%r12)
	movl	%r9d, %eax
	jne	.L84
.LVL267:
.L169:
	.loc 2 82 5 is_stmt 0 view .LVU804
.LBE680:
.LBE695:
.LBE709:
.LBE829:
.LBB830:
.LBB721:
	.loc 2 18 28 is_stmt 1 view .LVU805
	.loc 2 18 28 is_stmt 0 view .LVU806
.LBE721:
.LBE830:
	.loc 2 82 5 is_stmt 1 view .LVU807
	cmpq	$0, 16(%rdi)
	je	.L64
.LVL268:
.L197:
	.loc 2 82 5 is_stmt 0 view .LVU808
	movl	%r9d, %r12d
.LVL269:
	.loc 2 82 5 view .LVU809
.LBE851:
.LBE870:
.LBE888:
.LBE1235:
.LBB1236:
	.loc 2 17 41 is_stmt 1 view .LVU810
.LBB1218:
	.loc 2 18 9 view .LVU811
	jmp	.L202
.LVL270:
.L136:
	.loc 2 18 9 is_stmt 0 view .LVU812
.LBE1218:
.LBE1236:
.LBB1237:
.LBB1206:
.LBB1189:
.LBB1172:
.LBB1151:
.LBB1131:
.LBB1123:
.LBB1116:
	.loc 2 82 5 is_stmt 1 view .LVU813
	cmpq	$0, 16(%rbx)
	movl	%r12d, %esi
.LVL271:
	.loc 2 82 5 is_stmt 0 view .LVU814
	jne	.L127
	jmp	.L128
.LVL272:
.L314:
.LBB1109:
.LBB1101:
.LBB1097:
.LBB1094:
.LBB1091:
.LBB1080:
	.loc 2 73 9 is_stmt 1 view .LVU815
.LBB1078:
.LBI1078:
	.loc 2 21 36 view .LVU816
.LBB1079:
	.loc 2 21 57 view .LVU817
	.loc 2 21 64 is_stmt 0 view .LVU818
	movl	(%rcx), %esi
.LVL273:
	.loc 2 21 64 view .LVU819
	jmp	.L143
.LVL274:
.L294:
	.loc 2 21 64 view .LVU820
.LBE1079:
.LBE1078:
.LBE1080:
.LBE1091:
.LBE1094:
.LBE1097:
.LBE1101:
.LBE1109:
.LBE1116:
.LBE1123:
.LBE1131:
.LBE1151:
.LBE1172:
.LBE1189:
.LBE1206:
.LBE1237:
.LBB1238:
.LBB889:
.LBB871:
.LBB852:
.LBB831:
.LBB710:
.LBB696:
.LBB681:
.LBB668:
.LBB626:
.LBB623:
.LBB619:
.LBB617:
.LBB608:
	.loc 2 73 9 is_stmt 1 view .LVU821
.LBB606:
.LBI606:
	.loc 2 21 36 view .LVU822
.LBB607:
	.loc 2 21 57 view .LVU823
	.loc 2 21 64 is_stmt 0 view .LVU824
	movl	(%rcx), %r9d
.LVL275:
	.loc 2 21 64 view .LVU825
	jmp	.L78
.LVL276:
.L312:
	.loc 2 21 64 view .LVU826
.LBE607:
.LBE606:
.LBE608:
.LBE617:
.LBE619:
.LBE623:
.LBE626:
.LBE668:
.LBE681:
.LBE696:
.LBE710:
.LBE831:
.LBE852:
.LBE871:
.LBE889:
.LBE1238:
.LBB1239:
.LBB1207:
.LBB1190:
.LBB1173:
.LBB1152:
.LBB1132:
.LBB1124:
.LBB1117:
.LBB1110:
.LBB1068:
.LBB1065:
.LBB1061:
.LBB1059:
.LBB1052:
	.loc 2 73 9 is_stmt 1 view .LVU827
.LBB1050:
.LBI1050:
	.loc 2 21 36 view .LVU828
.LBB1051:
	.loc 2 21 57 view .LVU829
	.loc 2 21 64 is_stmt 0 view .LVU830
	movl	(%rcx), %edi
.LVL277:
	.loc 2 21 64 view .LVU831
	jmp	.L134
.LVL278:
.L300:
	.loc 2 21 64 view .LVU832
.LBE1051:
.LBE1050:
.LBE1052:
.LBE1059:
.LBE1061:
.LBE1065:
.LBE1068:
.LBE1110:
.LBE1117:
.LBE1124:
.LBE1132:
.LBE1152:
.LBE1173:
.LBE1190:
.LBE1207:
.LBE1239:
.LBB1240:
.LBB890:
.LBB872:
.LBB853:
.LBB832:
.LBB810:
.LBB801:
.LBB794:
.LBB787:
.LBB754:
.LBB751:
.LBB747:
.LBB745:
.LBB738:
	.loc 2 73 9 is_stmt 1 view .LVU833
.LBB736:
.LBI736:
	.loc 2 21 36 view .LVU834
.LBB737:
	.loc 2 21 57 view .LVU835
	.loc 2 21 64 is_stmt 0 view .LVU836
	movl	(%rcx), %r12d
.LVL279:
	.loc 2 21 64 view .LVU837
	jmp	.L98
.LVL280:
.L306:
	.loc 2 21 64 view .LVU838
.LBE737:
.LBE736:
.LBE738:
.LBE745:
.LBE747:
.LBE751:
.LBE754:
.LBE787:
.LBE794:
.LBE801:
.LBE810:
.LBE832:
.LBE853:
.LBE872:
.LBE890:
.LBE1240:
.LBB1241:
.LBB1208:
.LBB1191:
.LBB1174:
.LBB1153:
.LBB1023:
.LBB1008:
.LBB992:
.LBB977:
.LBB933:
.LBB930:
.LBB926:
.LBB924:
.LBB917:
	.loc 2 73 9 is_stmt 1 view .LVU839
.LBB915:
.LBI915:
	.loc 2 21 36 view .LVU840
.LBB916:
	.loc 2 21 57 view .LVU841
	.loc 2 21 64 is_stmt 0 view .LVU842
	movl	(%rcx), %esi
.LVL281:
	.loc 2 21 64 view .LVU843
	jmp	.L115
.LVL282:
.L309:
	.loc 2 21 64 view .LVU844
.LBE916:
.LBE915:
.LBE917:
.LBE924:
.LBE926:
.LBE930:
.LBE933:
.LBE977:
.LBB978:
.LBB962:
.LBB958:
.LBB956:
.LBB954:
.LBB947:
	.loc 2 73 9 is_stmt 1 view .LVU845
.LBB945:
.LBI945:
	.loc 2 21 36 view .LVU846
.LBB946:
	.loc 2 21 57 view .LVU847
	.loc 2 21 64 is_stmt 0 view .LVU848
	movl	(%rcx), %r12d
.LVL283:
	.loc 2 21 64 view .LVU849
	jmp	.L124
.LVL284:
.L297:
	.loc 2 21 64 view .LVU850
.LBE946:
.LBE945:
.LBE947:
.LBE954:
.LBE956:
.LBE958:
.LBE962:
.LBE978:
.LBE992:
.LBE1008:
.LBE1023:
.LBE1153:
.LBE1174:
.LBE1191:
.LBE1208:
.LBE1241:
.LBB1242:
.LBB891:
.LBB873:
.LBB854:
.LBB833:
.LBB711:
.LBB697:
.LBB682:
.LBB669:
.LBB655:
.LBB651:
.LBB649:
.LBB647:
.LBB640:
	.loc 2 73 9 is_stmt 1 view .LVU851
.LBB638:
.LBI638:
	.loc 2 21 36 view .LVU852
.LBB639:
	.loc 2 21 57 view .LVU853
	.loc 2 21 64 is_stmt 0 view .LVU854
	movl	(%rcx), %r12d
.LVL285:
	.loc 2 21 64 view .LVU855
	jmp	.L87
.LVL286:
.L302:
	.loc 2 21 64 view .LVU856
.LBE639:
.LBE638:
.LBE640:
.LBE647:
.LBE649:
.LBE651:
.LBE655:
.LBE669:
.LBE682:
.LBE697:
.LBE711:
.LBE833:
.LBB834:
.LBB811:
.LBB802:
.LBB795:
.LBB788:
.LBB782:
.LBB779:
.LBB777:
.LBB775:
.LBB766:
	.loc 2 73 9 is_stmt 1 view .LVU857
.LBB764:
.LBI764:
	.loc 2 21 36 view .LVU858
.LBB765:
	.loc 2 21 57 view .LVU859
	.loc 2 21 64 is_stmt 0 view .LVU860
	movl	(%rcx), %ebp
.LVL287:
	.loc 2 21 64 view .LVU861
	jmp	.L104
.LVL288:
.L307:
	.loc 2 21 64 view .LVU862
.LBE765:
.LBE764:
.LBE766:
.LBE775:
.LBE777:
.LBE779:
.LBE782:
.LBE788:
.LBE795:
.LBE802:
.LBE811:
.LBE834:
.LBE854:
.LBE873:
.LBE891:
.LBE1242:
.LBB1243:
.LBB1209:
.LBB1192:
.LBB1175:
.LBB1154:
.LBB1024:
.LBB1009:
.LBB993:
.LBB979:
.LBB936:
	.loc 2 18 28 is_stmt 1 view .LVU863
	.loc 2 18 28 is_stmt 0 view .LVU864
.LBE936:
.LBE979:
	.loc 2 82 5 is_stmt 1 view .LVU865
	testq	%r13, %r13
	je	.L154
	jmp	.L176
.LVL289:
.L295:
	.loc 2 82 5 is_stmt 0 view .LVU866
.LBE993:
.LBE1009:
.LBE1024:
.LBE1154:
.LBE1175:
.LBE1192:
.LBE1209:
.LBE1243:
.LBB1244:
.LBB892:
.LBB874:
.LBB855:
.LBB835:
.LBB712:
.LBB698:
.LBB683:
.LBB670:
.LBB630:
	.loc 2 18 28 is_stmt 1 view .LVU867
	.loc 2 18 28 is_stmt 0 view .LVU868
.LBE630:
.LBE670:
	.loc 2 82 5 is_stmt 1 view .LVU869
	testq	%r14, %r14
	jne	.L90
.LVL290:
	.loc 2 82 5 is_stmt 0 view .LVU870
.LBE683:
.LBE698:
.LBE712:
.LBE835:
.LBB836:
.LBB722:
	.loc 2 18 28 is_stmt 1 view .LVU871
	.loc 2 18 28 is_stmt 0 view .LVU872
.LBE722:
.LBE836:
	.loc 2 82 5 is_stmt 1 view .LVU873
	cmpq	$0, 16(%rdi)
	je	.L64
	jmp	.L67
.LVL291:
.L88:
.LBB837:
.LBB713:
.LBB699:
.LBB684:
.LBB671:
	.loc 2 17 41 view .LVU874
.LBB660:
	.loc 2 18 9 view .LVU875
	cmpl	%r9d, %r12d
	jle	.L185
.LVL292:
	.loc 2 18 9 is_stmt 0 view .LVU876
.LBE660:
.LBE671:
.LBE684:
.LBE699:
.LBE713:
.LBE837:
.LBB838:
.LBB723:
	.loc 2 18 28 is_stmt 1 view .LVU877
	.loc 2 18 28 is_stmt 0 view .LVU878
.LBE723:
.LBE838:
	.loc 2 82 5 is_stmt 1 view .LVU879
	cmpq	$0, 16(%rdi)
	jne	.L202
	movl	%r12d, %r9d
	jmp	.L64
.LVL293:
.L190:
	.loc 2 82 5 is_stmt 0 view .LVU880
.LBE855:
.LBE874:
.LBE892:
.LBE1244:
.LBB1245:
.LBB1210:
.LBB1193:
.LBB1176:
.LBB1155:
.LBB1025:
.LBB1010:
.LBB994:
.LBB980:
.LBB963:
	.loc 2 75 5 view .LVU881
	movl	%esi, %eax
.LVL294:
	.loc 2 75 5 view .LVU882
.LBE963:
.LBE980:
.LBE994:
.LBE1010:
.LBE1025:
.LBE1155:
.LBB1156:
	.loc 2 17 41 is_stmt 1 view .LVU883
.LBB1036:
	.loc 2 18 9 view .LVU884
.LBE1036:
.LBE1156:
.LBB1157:
.LBB1026:
.LBB1011:
.LBB995:
.LBB981:
.LBB964:
	.loc 2 75 5 is_stmt 0 view .LVU885
	movl	%eax, %esi
	jmp	.L176
.LVL295:
.L185:
	.loc 2 75 5 view .LVU886
.LBE964:
.LBE981:
.LBE995:
.LBE1011:
.LBE1026:
.LBE1157:
.LBE1176:
.LBE1193:
.LBE1210:
.LBE1245:
.LBB1246:
.LBB893:
.LBB875:
.LBB856:
.LBB839:
.LBB714:
.LBB700:
.LBB685:
.LBB672:
.LBB656:
	movl	%r9d, %eax
	jmp	.L84
.LVL296:
.L118:
	.loc 2 75 5 view .LVU887
.LBE656:
.LBE672:
.LBE685:
.LBE700:
.LBE714:
.LBE839:
.LBE856:
.LBE875:
.LBE893:
.LBE1246:
.LBB1247:
.LBB1211:
.LBB1194:
.LBB1177:
.LBB1158:
.LBB1027:
.LBB1012:
.LBB996:
.LBB982:
.LBB937:
	.loc 2 18 28 is_stmt 1 view .LVU888
	.loc 2 18 28 is_stmt 0 view .LVU889
.LBE937:
.LBE982:
	.loc 2 82 5 is_stmt 1 view .LVU890
	cmpq	$0, 16(%rbp)
	movl	%esi, %eax
	je	.L154
.LVL297:
	.loc 2 82 5 is_stmt 0 view .LVU891
.LBE996:
.LBE1012:
.LBE1027:
.LBE1158:
.LBB1159:
	.loc 2 17 41 is_stmt 1 view .LVU892
.LBB1037:
	.loc 2 18 9 view .LVU893
.LBE1037:
.LBE1159:
.LBB1160:
.LBB1028:
.LBB1013:
.LBB997:
.LBB983:
.LBB965:
	.loc 2 75 5 is_stmt 0 view .LVU894
	movl	%eax, %esi
	jmp	.L176
.LBE965:
.LBE983:
.LBE997:
.LBE1013:
.LBE1028:
.LBE1160:
.LBE1177:
.LBE1194:
.LBE1211:
.LBE1247:
.LBE1257:
.LBE1267:
	.cfi_endproc
.LFE1911:
	.seh_endproc
	.p2align 4,,15
	.globl	_Z5get_xv
	.def	_Z5get_xv;	.scl	2;	.type	32;	.endef
	.seh_proc	_Z5get_xv
_Z5get_xv:
.LFB1912:
	.loc 2 87 13 is_stmt 1 view -0
	.cfi_startproc
	pushq	%r15
	.seh_pushreg	%r15
	.cfi_def_cfa_offset 16
	.cfi_offset 15, -16
	pushq	%r14
	.seh_pushreg	%r14
	.cfi_def_cfa_offset 24
	.cfi_offset 14, -24
	pushq	%r13
	.seh_pushreg	%r13
	.cfi_def_cfa_offset 32
	.cfi_offset 13, -32
	pushq	%r12
	.seh_pushreg	%r12
	.cfi_def_cfa_offset 40
	.cfi_offset 12, -40
	pushq	%rbp
	.seh_pushreg	%rbp
	.cfi_def_cfa_offset 48
	.cfi_offset 6, -48
	pushq	%rdi
	.seh_pushreg	%rdi
	.cfi_def_cfa_offset 56
	.cfi_offset 5, -56
	pushq	%rsi
	.seh_pushreg	%rsi
	.cfi_def_cfa_offset 64
	.cfi_offset 4, -64
	pushq	%rbx
	.seh_pushreg	%rbx
	.cfi_def_cfa_offset 72
	.cfi_offset 3, -72
	subq	$120, %rsp
	.seh_stackalloc	120
	.cfi_def_cfa_offset 192
	.seh_endprologue
	.loc 2 88 5 view .LVU896
.LVL298:
.LBB1974:
.LBI1974:
	.loc 2 15 36 view .LVU897
	.loc 2 15 36 is_stmt 0 view .LVU898
.LBE1974:
	.loc 2 89 5 is_stmt 1 view .LVU899
	.loc 2 90 5 view .LVU900
	.loc 2 91 5 view .LVU901
	.loc 2 91 12 is_stmt 0 view .LVU902
	movl	n(%rip), %r11d
.LVL299:
	.loc 2 91 20 view .LVU903
	movl	rx(%rip), %r9d
	addl	%r11d, %r9d
.LVL300:
	.loc 2 91 28 view .LVU904
	cmpl	%r9d, %r11d
	jge	.L554
.LBB1979:
.LBB1980:
.LBB1981:
.LBB1982:
	.loc 2 78 9 view .LVU905
	movl	%r11d, %eax
.LBE1982:
.LBE1981:
	.loc 2 72 11 view .LVU906
	movl	ry(%rip), %esi
.LBB2872:
.LBB2838:
.LBB1983:
.LBB1984:
.LBB1985:
.LBB1986:
.LBB1987:
.LBB1988:
.LBB1989:
.LBB1990:
.LBB1991:
.LBB1992:
.LBB1993:
.LBB1994:
	.loc 2 78 9 view .LVU907
	movl	%r11d, %r10d
.LBE1994:
.LBE1993:
.LBE1992:
.LBE1991:
.LBE1990:
.LBE1989:
.LBE1988:
.LBE1987:
.LBE1986:
.LBE1985:
.LBE1984:
.LBE1983:
.LBE2838:
.LBE2872:
.LBE1980:
.LBE1979:
	.loc 2 93 20 view .LVU908
	leaq	t(%rip), %r14
.LBB2941:
.LBB2908:
.LBB2873:
.LBB2839:
	.loc 2 78 9 view .LVU909
	shrl	$31, %eax
	addl	%r11d, %eax
	sarl	%eax
.LBB2387:
.LBB2388:
.LBB2389:
.LBB2390:
	testl	%r11d, %r11d
.LBE2390:
.LBE2389:
.LBE2388:
.LBE2387:
	movl	%eax, %r13d
.LBB2782:
.LBB2756:
.LBB2729:
.LBB2704:
	leal	3(%r11), %eax
	cmovns	%r11d, %eax
	sarl	$2, %eax
.LBB2391:
.LBB2392:
.LBB2393:
.LBB2394:
	testl	%r11d, %r11d
.LBE2394:
.LBE2393:
.LBE2392:
.LBE2391:
	movl	%eax, %ecx
	movl	%eax, 40(%rsp)
.LBB2544:
.LBB2526:
.LBB2507:
.LBB2490:
	leal	7(%r11), %eax
	cmovns	%r11d, %eax
.LBE2490:
.LBE2507:
.LBE2526:
.LBE2544:
.LBB2545:
.LBB2546:
.LBB2547:
.LBB2548:
	.loc 2 78 16 view .LVU910
	leal	0(%r13,%rcx), %edx
.LBE2548:
.LBE2547:
.LBE2546:
.LBE2545:
.LBB2662:
.LBB2527:
.LBB2508:
.LBB2491:
	.loc 2 78 9 view .LVU911
	sarl	$3, %eax
.LBB2395:
.LBB2396:
.LBB2397:
.LBB2398:
	testl	%r11d, %r11d
.LBE2398:
.LBE2397:
.LBE2396:
.LBE2395:
	movl	%eax, %edi
	movl	%eax, 56(%rsp)
.LBB2433:
.LBB2426:
.LBB2418:
.LBB2412:
	leal	15(%r11), %eax
	cmovns	%r11d, %eax
.LBE2412:
.LBE2418:
.LBE2426:
.LBE2433:
.LBB2434:
.LBB2435:
.LBB2436:
.LBB2437:
	.loc 2 78 16 view .LVU912
	addl	%ecx, %edi
.LBE2437:
.LBE2436:
.LBE2435:
.LBE2434:
.LBB2465:
.LBB2427:
.LBB2419:
.LBB2413:
	.loc 2 78 9 view .LVU913
	sarl	$4, %eax
	movl	%eax, 60(%rsp)
.LBE2413:
.LBE2419:
.LBE2427:
.LBE2465:
.LBB2466:
.LBB2459:
.LBB2455:
.LBB2451:
	movl	%edi, %eax
	shrl	$31, %eax
	addl	%edi, %eax
	sarl	%eax
	movl	%eax, 48(%rsp)
.LBE2451:
.LBE2455:
.LBE2459:
.LBE2466:
.LBE2491:
.LBE2508:
.LBE2527:
.LBE2662:
.LBB2663:
.LBB2652:
.LBB2643:
.LBB2634:
	movl	%edx, %eax
	shrl	$31, %eax
	addl	%edx, %eax
	sarl	%eax
.LBB2549:
.LBB2550:
.LBB2551:
.LBB2552:
	.loc 2 78 16 view .LVU914
	movl	%eax, %edx
.LBE2552:
.LBE2551:
.LBE2550:
.LBE2549:
	.loc 2 78 9 view .LVU915
	movl	%eax, %ebx
	movl	%eax, 64(%rsp)
.LBB2584:
.LBB2578:
.LBB2571:
.LBB2566:
	.loc 2 78 16 view .LVU916
	addl	%ecx, %edx
	.loc 2 78 9 view .LVU917
	movl	%edx, %eax
	shrl	$31, %eax
	addl	%edx, %eax
.LBE2566:
.LBE2571:
.LBE2578:
.LBE2584:
.LBB2585:
.LBB2586:
.LBB2587:
.LBB2588:
	.loc 2 78 16 view .LVU918
	leal	(%rbx,%r13), %edx
.LBE2588:
.LBE2587:
.LBE2586:
.LBE2585:
.LBB2620:
.LBB2579:
.LBB2572:
.LBB2567:
	.loc 2 78 9 view .LVU919
	sarl	%eax
	movl	%eax, 68(%rsp)
.LBE2567:
.LBE2572:
.LBE2579:
.LBE2620:
.LBB2621:
.LBB2614:
.LBB2609:
.LBB2604:
	movl	%edx, %eax
	shrl	$31, %eax
	addl	%edx, %eax
.LBE2604:
.LBE2609:
.LBE2614:
.LBE2621:
.LBE2634:
.LBE2643:
.LBE2652:
.LBE2663:
.LBE2704:
.LBE2729:
.LBE2756:
.LBE2782:
.LBB2783:
.LBB2364:
.LBB2341:
.LBB2318:
	.loc 2 78 16 view .LVU920
	leal	0(%r13,%r11), %edx
.LBE2318:
.LBE2341:
.LBE2364:
.LBE2783:
.LBB2784:
.LBB2757:
.LBB2730:
.LBB2705:
.LBB2664:
.LBB2653:
.LBB2644:
.LBB2635:
.LBB2622:
.LBB2615:
.LBB2610:
.LBB2605:
	.loc 2 78 9 view .LVU921
	sarl	%eax
	movl	%eax, 72(%rsp)
.LBE2605:
.LBE2610:
.LBE2615:
.LBE2622:
.LBE2635:
.LBE2644:
.LBE2653:
.LBE2664:
.LBE2705:
.LBE2730:
.LBE2757:
.LBE2784:
.LBB2785:
.LBB2365:
.LBB2342:
.LBB2319:
	movl	%edx, %eax
	shrl	$31, %eax
	addl	%edx, %eax
	sarl	%eax
.LBB2122:
.LBB2123:
.LBB2124:
.LBB2125:
	.loc 2 78 16 view .LVU922
	leal	0(%r13,%rax), %edx
.LBE2125:
.LBE2124:
.LBE2123:
.LBE2122:
	.loc 2 78 9 view .LVU923
	movl	%eax, %r15d
.LBB2277:
.LBB2259:
.LBB2240:
.LBB2223:
	movl	%edx, %eax
.LBE2223:
.LBE2240:
.LBE2259:
.LBE2277:
.LBB2278:
.LBB2108:
	.loc 2 75 5 view .LVU924
	movl	%r15d, 44(%rsp)
.LBE2108:
.LBE2278:
.LBB2279:
.LBB2260:
.LBB2241:
.LBB2224:
	.loc 2 78 9 view .LVU925
	shrl	$31, %eax
	addl	%edx, %eax
	sarl	%eax
.LBB2126:
.LBB2127:
.LBB2128:
.LBB2129:
	.loc 2 78 16 view .LVU926
	leal	(%rax,%r13), %edx
.LBE2129:
.LBE2128:
.LBE2127:
.LBE2126:
	.loc 2 78 9 view .LVU927
	movl	%eax, %ecx
	movl	%eax, 76(%rsp)
.LBB2161:
.LBB2155:
.LBB2148:
.LBB2143:
	movl	%edx, %eax
	shrl	$31, %eax
	addl	%edx, %eax
.LBE2143:
.LBE2148:
.LBE2155:
.LBE2161:
.LBB2162:
.LBB2163:
.LBB2164:
.LBB2165:
	.loc 2 78 16 view .LVU928
	leal	(%rcx,%r15), %edx
.LBE2165:
.LBE2164:
.LBE2163:
.LBE2162:
.LBB2197:
.LBB2156:
.LBB2149:
.LBB2144:
	.loc 2 78 9 view .LVU929
	sarl	%eax
	movl	%eax, 80(%rsp)
.LBE2144:
.LBE2149:
.LBE2156:
.LBE2197:
.LBB2198:
.LBB2189:
.LBB2184:
.LBB2179:
	movl	%edx, %eax
	shrl	$31, %eax
	addl	%edx, %eax
.LBE2179:
.LBE2184:
.LBE2189:
.LBE2198:
.LBE2224:
.LBE2241:
.LBE2260:
.LBE2279:
.LBB2280:
.LBB2109:
.LBB2096:
.LBB2084:
	.loc 2 78 16 view .LVU930
	leal	(%r15,%r11), %edx
.LBE2084:
.LBE2096:
.LBE2109:
.LBE2280:
.LBB2281:
.LBB2261:
.LBB2242:
.LBB2225:
.LBB2199:
.LBB2190:
.LBB2185:
.LBB2180:
	.loc 2 78 9 view .LVU931
	sarl	%eax
	movl	%eax, 52(%rsp)
.LBE2180:
.LBE2185:
.LBE2190:
.LBE2199:
.LBE2225:
.LBE2242:
.LBE2261:
.LBE2281:
.LBB2282:
.LBB2110:
.LBB2097:
.LBB2085:
	movl	%edx, %eax
	shrl	$31, %eax
	addl	%edx, %eax
	sarl	%eax
.LBB2027:
.LBB2028:
.LBB2029:
.LBB2030:
	.loc 2 78 16 view .LVU932
	leal	(%r15,%rax), %edx
.LBE2030:
.LBE2029:
.LBE2028:
.LBE2027:
	.loc 2 78 9 view .LVU933
	movl	%eax, %ecx
	movl	%eax, 84(%rsp)
.LBB2065:
.LBB2058:
.LBB2050:
.LBB2044:
	movl	%edx, %eax
	shrl	$31, %eax
	addl	%edx, %eax
.LBE2044:
.LBE2050:
.LBE2058:
.LBE2065:
.LBB2066:
.LBB2020:
.LBB2015:
.LBB2010:
	.loc 2 78 16 view .LVU934
	leal	(%rcx,%r11), %edx
.LBE2010:
.LBE2015:
.LBE2020:
.LBE2066:
.LBB2067:
.LBB2059:
.LBB2051:
.LBB2045:
	.loc 2 78 9 view .LVU935
	sarl	%eax
.LBE2045:
.LBE2051:
.LBE2059:
.LBE2067:
.LBE2085:
.LBE2097:
.LBE2110:
.LBE2282:
.LBE2319:
.LBE2342:
.LBE2365:
.LBE2785:
.LBE2839:
.LBE2873:
.LBE2908:
.LBE2941:
.LBB2942:
.LBB1975:
	.loc 2 15 70 view .LVU936
	xorl	%ebx, %ebx
.LBE1975:
.LBE2942:
.LBB2943:
.LBB2909:
.LBB2874:
.LBB2840:
.LBB2786:
.LBB2366:
.LBB2343:
.LBB2320:
.LBB2283:
.LBB2111:
.LBB2098:
.LBB2086:
.LBB2068:
.LBB2060:
.LBB2052:
.LBB2046:
	.loc 2 78 9 view .LVU937
	movl	%eax, 88(%rsp)
.LBE2046:
.LBE2052:
.LBE2060:
.LBE2068:
.LBB2069:
.LBB2021:
.LBB2016:
.LBB2011:
	movl	%edx, %eax
	shrl	$31, %eax
	addl	%edx, %eax
	sarl	%eax
	movl	%eax, 92(%rsp)
	jmp	.L483
.LVL301:
	.p2align 4,,10
.L782:
	.loc 2 78 9 view .LVU938
.LBE2011:
.LBE2016:
.LBE2021:
.LBE2069:
.LBE2086:
.LBE2098:
.LBE2111:
.LBE2283:
.LBE2320:
.LBE2343:
.LBE2366:
.LBE2786:
.LBE2840:
.LBE2874:
	.loc 2 73 9 is_stmt 1 view .LVU939
.LBB2875:
.LBI2875:
	.loc 2 21 36 view .LVU940
.LBB2876:
	.loc 2 21 57 view .LVU941
	.loc 2 21 64 is_stmt 0 view .LVU942
	movl	0(%rbp), %edi
.LVL302:
.L321:
	.loc 2 21 64 view .LVU943
.LBE2876:
.LBE2875:
.LBE2909:
.LBE2943:
	.loc 2 18 9 is_stmt 1 view .LVU944
	cmpl	%edi, %ebx
	cmovl	%edi, %ebx
.LVL303:
.L319:
	.loc 2 95 13 view .LVU945
	addl	$1, %r10d
.LVL304:
.L318:
	.loc 2 97 9 view .LVU946
	testb	$1, %r9b
	je	.L401
	.loc 2 98 13 view .LVU947
	.loc 2 98 23 is_stmt 0 view .LVU948
	subl	$1, %r9d
.LVL305:
	.loc 2 98 22 view .LVU949
	movslq	%r9d, %rax
	movq	(%r14,%rax,8), %rbp
	.loc 2 98 13 view .LVU950
	testq	%rbp, %rbp
	je	.L401
	.loc 2 99 17 is_stmt 1 view .LVU951
.LVL306:
.LBB2944:
.LBI2944:
	.loc 2 71 5 view .LVU952
.LBB2945:
	.loc 2 72 5 view .LVU953
	cmpl	%esi, %r11d
	jg	.L402
	.loc 2 73 9 view .LVU954
.LVL307:
.LBB2946:
.LBI2946:
	.loc 2 21 36 view .LVU955
.LBB2947:
	.loc 2 21 57 view .LVU956
	.loc 2 21 64 is_stmt 0 view .LVU957
	movl	0(%rbp), %edi
.LVL308:
.L403:
	.loc 2 21 64 view .LVU958
.LBE2947:
.LBE2946:
.LBE2945:
.LBE2944:
	.loc 2 18 9 is_stmt 1 view .LVU959
	cmpl	%edi, %ebx
	cmovl	%edi, %ebx
.LVL309:
.L401:
	.loc 2 91 35 is_stmt 0 discriminator 2 view .LVU960
	sarl	%r10d
.LVL310:
	.loc 2 91 44 discriminator 2 view .LVU961
	sarl	%r9d
.LVL311:
	.loc 2 91 28 discriminator 2 view .LVU962
	cmpl	%r9d, %r10d
	jge	.L316
.LVL312:
.L483:
	.loc 2 92 9 is_stmt 1 view .LVU963
	testb	$1, %r10b
	je	.L318
	.loc 2 93 13 view .LVU964
	.loc 2 93 20 is_stmt 0 view .LVU965
	movslq	%r10d, %rax
	movq	(%r14,%rax,8), %rbp
	.loc 2 93 13 view .LVU966
	testq	%rbp, %rbp
	je	.L319
	.loc 2 94 17 is_stmt 1 view .LVU967
.LVL313:
.LBB3748:
.LBI1979:
	.loc 2 71 5 view .LVU968
.LBB2910:
	.loc 2 72 5 view .LVU969
	cmpl	%esi, %r11d
	jle	.L782
	.loc 2 75 5 view .LVU970
	.loc 2 76 16 is_stmt 0 view .LVU971
	xorl	%edi, %edi
	.loc 2 75 5 view .LVU972
	testl	%esi, %esi
	jle	.L321
.LVL314:
.LBB2877:
.LBB2841:
	.loc 2 78 5 is_stmt 1 view .LVU973
	.loc 2 79 5 view .LVU974
.LBB2787:
.LBI2787:
	.loc 2 15 36 view .LVU975
	.loc 2 15 36 is_stmt 0 view .LVU976
.LBE2787:
	.loc 2 80 5 is_stmt 1 view .LVU977
	.loc 2 80 15 is_stmt 0 view .LVU978
	movq	8(%rbp), %r12
	.loc 2 80 5 view .LVU979
	testq	%r12, %r12
	je	.L322
	.loc 2 81 9 is_stmt 1 view .LVU980
.LVL315:
.LBB2789:
.LBI2387:
	.loc 2 71 5 view .LVU981
.LBB2758:
	.loc 2 72 5 view .LVU982
	cmpl	%r13d, %esi
	jge	.L783
	.loc 2 75 5 view .LVU983
.LVL316:
.LBB2731:
.LBB2706:
	.loc 2 78 5 view .LVU984
	.loc 2 79 5 view .LVU985
.LBB2665:
.LBI2665:
	.loc 2 15 36 view .LVU986
	.loc 2 15 36 is_stmt 0 view .LVU987
.LBE2665:
	.loc 2 80 5 is_stmt 1 view .LVU988
	.loc 2 80 15 is_stmt 0 view .LVU989
	movq	8(%r12), %r15
	.loc 2 80 5 view .LVU990
	testq	%r15, %r15
	je	.L325
	.loc 2 81 9 is_stmt 1 view .LVU991
.LVL317:
.LBB2666:
.LBI2391:
	.loc 2 71 5 view .LVU992
.LBB2528:
	.loc 2 72 5 view .LVU993
	cmpl	40(%rsp), %esi
	jl	.L326
	.loc 2 73 9 view .LVU994
.LVL318:
.LBB2509:
.LBI2509:
	.loc 2 21 36 view .LVU995
.LBB2510:
	.loc 2 21 57 view .LVU996
	.loc 2 21 64 is_stmt 0 view .LVU997
	movl	(%r15), %edi
.LVL319:
.L327:
	.loc 2 21 64 view .LVU998
.LBE2510:
.LBE2509:
.LBE2528:
.LBE2666:
.LBB2667:
.LBI2667:
	.loc 2 17 41 is_stmt 1 view .LVU999
.LBB2668:
	.loc 2 18 9 view .LVU1000
	testl	%edi, %edi
	jle	.L325
.LVL320:
.L345:
	.loc 2 18 28 view .LVU1001
	.loc 2 18 28 is_stmt 0 view .LVU1002
.LBE2668:
.LBE2667:
	.loc 2 82 5 is_stmt 1 view .LVU1003
	.loc 2 82 15 is_stmt 0 view .LVU1004
	movq	16(%r12), %r12
.LVL321:
	.loc 2 82 5 view .LVU1005
	testq	%r12, %r12
	je	.L321
	.loc 2 83 9 is_stmt 1 view .LVU1006
.LVL322:
.LBB2674:
.LBI2545:
	.loc 2 71 5 view .LVU1007
.LBB2654:
	.loc 2 72 5 view .LVU1008
	.loc 2 75 5 view .LVU1009
	cmpl	40(%rsp), %esi
	jle	.L584
.LVL323:
.L346:
.LBB2645:
.LBB2636:
	.loc 2 78 5 view .LVU1010
	.loc 2 79 5 view .LVU1011
.LBB2623:
.LBI2623:
	.loc 2 15 36 view .LVU1012
	.loc 2 15 36 is_stmt 0 view .LVU1013
.LBE2623:
	.loc 2 80 5 is_stmt 1 view .LVU1014
	.loc 2 80 15 is_stmt 0 view .LVU1015
	movq	8(%r12), %rax
	.loc 2 80 5 view .LVU1016
	testq	%rax, %rax
	je	.L348
	.loc 2 81 9 is_stmt 1 view .LVU1017
.LVL324:
.LBB2624:
.LBI2549:
	.loc 2 71 5 view .LVU1018
.LBB2580:
	.loc 2 72 5 view .LVU1019
	cmpl	64(%rsp), %esi
	jge	.L784
	.loc 2 75 5 view .LVU1020
.LVL325:
.LBB2573:
.LBB2568:
	.loc 2 78 5 view .LVU1021
	.loc 2 79 5 view .LVU1022
.LBB2553:
.LBI2553:
	.loc 2 15 36 view .LVU1023
	.loc 2 15 36 is_stmt 0 view .LVU1024
.LBE2553:
	.loc 2 80 5 is_stmt 1 view .LVU1025
	.loc 2 80 15 is_stmt 0 view .LVU1026
	movq	8(%rax), %rcx
	movq	16(%rax), %rax
.LVL326:
	.loc 2 80 5 view .LVU1027
	testq	%rcx, %rcx
	movq	%rax, 96(%rsp)
	je	.L351
	.loc 2 81 9 is_stmt 1 view .LVU1028
.LVL327:
.LBB2554:
.LBI2554:
	.loc 2 71 5 view .LVU1029
.LBB2555:
	.loc 2 72 5 view .LVU1030
	cmpl	68(%rsp), %esi
	jge	.L785
	.loc 2 75 5 view .LVU1031
	movl	68(%rsp), %r8d
	movl	40(%rsp), %edx
	call	_Z5get_yP4treeii.part.1
.LVL328:
	.loc 2 75 5 is_stmt 0 view .LVU1032
	movl	%eax, %r15d
.L353:
.LVL329:
	.loc 2 75 5 view .LVU1033
.LBE2555:
.LBE2554:
.LBB2559:
.LBI2559:
	.loc 2 17 41 is_stmt 1 view .LVU1034
.LBB2560:
	.loc 2 18 9 view .LVU1035
	testl	%r15d, %r15d
	jle	.L351
	.loc 2 18 28 view .LVU1036
.LVL330:
	.loc 2 18 28 is_stmt 0 view .LVU1037
.LBE2560:
.LBE2559:
	.loc 2 82 5 is_stmt 1 view .LVU1038
	cmpq	$0, 96(%rsp)
	je	.L356
	.loc 2 83 9 view .LVU1039
.LVL331:
.LBB2561:
.LBI2561:
	.loc 2 71 5 view .LVU1040
.LBB2562:
	.loc 2 72 5 view .LVU1041
	.loc 2 75 5 view .LVU1042
	cmpl	68(%rsp), %esi
	jle	.L356
.LVL332:
.L355:
	.loc 2 75 5 is_stmt 0 view .LVU1043
	movl	64(%rsp), %r8d
	movl	68(%rsp), %edx
	movq	96(%rsp), %rcx
	call	_Z5get_yP4treeii.part.1
.LVL333:
	.loc 2 75 5 view .LVU1044
.LBE2562:
.LBE2561:
.LBE2568:
.LBE2573:
.LBE2580:
.LBE2624:
.LBE2636:
.LBE2645:
.LBE2654:
.LBE2674:
.LBE2706:
.LBE2731:
.LBE2758:
.LBE2789:
.LBE2841:
.LBE2877:
.LBE2910:
.LBE3748:
	.loc 2 18 9 is_stmt 1 view .LVU1045
	cmpl	%eax, %r15d
	cmovl	%eax, %r15d
.LVL334:
.L350:
.LBB3749:
.LBB2911:
.LBB2878:
.LBB2842:
.LBB2790:
.LBB2759:
.LBB2732:
.LBB2707:
.LBB2675:
.LBB2655:
.LBB2646:
.LBB2637:
.LBB2625:
.LBI2625:
	.loc 2 17 41 view .LVU1046
.LBB2626:
	.loc 2 18 9 view .LVU1047
	testl	%r15d, %r15d
	jle	.L348
	.loc 2 18 28 view .LVU1048
.LVL335:
	.loc 2 18 28 is_stmt 0 view .LVU1049
.LBE2626:
.LBE2625:
	.loc 2 82 5 is_stmt 1 view .LVU1050
	.loc 2 82 15 is_stmt 0 view .LVU1051
	movq	16(%r12), %rax
	.loc 2 82 5 view .LVU1052
	testq	%rax, %rax
	je	.L356
	.loc 2 83 9 is_stmt 1 view .LVU1053
.LVL336:
.LBB2627:
.LBI2585:
	.loc 2 71 5 view .LVU1054
.LBB2616:
	.loc 2 72 5 view .LVU1055
	.loc 2 75 5 view .LVU1056
	cmpl	64(%rsp), %esi
	jle	.L356
.LVL337:
.L524:
.LBB2611:
.LBB2606:
	.loc 2 78 5 view .LVU1057
	.loc 2 79 5 view .LVU1058
.LBB2589:
.LBI2589:
	.loc 2 15 36 view .LVU1059
	.loc 2 15 36 is_stmt 0 view .LVU1060
.LBE2589:
	.loc 2 80 5 is_stmt 1 view .LVU1061
	.loc 2 80 15 is_stmt 0 view .LVU1062
	movq	8(%rax), %rcx
	movq	16(%rax), %r12
.LVL338:
	.loc 2 80 5 view .LVU1063
	testq	%rcx, %rcx
	je	.L357
	.loc 2 81 9 is_stmt 1 view .LVU1064
.LVL339:
.LBB2590:
.LBI2590:
	.loc 2 71 5 view .LVU1065
.LBB2591:
	.loc 2 72 5 view .LVU1066
	cmpl	72(%rsp), %esi
	jge	.L786
	.loc 2 75 5 view .LVU1067
	movl	72(%rsp), %r8d
	movl	64(%rsp), %edx
	call	_Z5get_yP4treeii.part.1
.LVL340:
.L359:
	.loc 2 75 5 is_stmt 0 view .LVU1068
.LBE2591:
.LBE2590:
.LBB2595:
.LBI2595:
	.loc 2 17 41 is_stmt 1 view .LVU1069
.LBB2596:
	.loc 2 18 9 view .LVU1070
	testl	%eax, %eax
	jle	.L357
	.loc 2 18 28 view .LVU1071
.LVL341:
	.loc 2 18 28 is_stmt 0 view .LVU1072
.LBE2596:
.LBE2595:
	.loc 2 82 5 is_stmt 1 view .LVU1073
	testq	%r12, %r12
	je	.L360
	.loc 2 83 9 view .LVU1074
.LVL342:
.LBB2597:
.LBI2597:
	.loc 2 71 5 view .LVU1075
.LBB2598:
	.loc 2 72 5 view .LVU1076
	.loc 2 75 5 view .LVU1077
	cmpl	72(%rsp), %esi
	jle	.L360
	movl	%eax, 96(%rsp)
.LVL343:
.L549:
	.loc 2 75 5 is_stmt 0 view .LVU1078
	movl	72(%rsp), %edx
	movq	%r12, %rcx
	movl	%r13d, %r8d
	call	_Z5get_yP4treeii.part.1
.LVL344:
	.loc 2 75 5 view .LVU1079
.LBE2598:
.LBE2597:
.LBB2600:
.LBI2600:
	.loc 2 17 41 is_stmt 1 view .LVU1080
.LBB2601:
	.loc 2 18 9 view .LVU1081
	movl	96(%rsp), %ecx
	cmpl	%ecx, %eax
	cmovle	%ecx, %eax
.LVL345:
.L360:
	.loc 2 18 9 is_stmt 0 view .LVU1082
.LBE2601:
.LBE2600:
.LBE2606:
.LBE2611:
.LBE2616:
.LBE2627:
.LBE2637:
.LBE2646:
.LBE2655:
.LBE2675:
.LBE2707:
.LBE2732:
.LBE2759:
.LBE2790:
.LBE2842:
.LBE2878:
.LBE2911:
.LBE3749:
	.loc 2 18 9 is_stmt 1 view .LVU1083
	cmpl	%eax, %r15d
	cmovl	%eax, %r15d
.LVL346:
.L356:
.LBB3750:
.LBB2912:
.LBB2879:
.LBB2843:
.LBB2791:
.LBB2760:
.LBB2733:
.LBB2708:
.LBB2676:
.LBI2676:
	.loc 2 17 41 view .LVU1084
.LBB2677:
	.loc 2 18 9 view .LVU1085
	cmpl	%edi, %r15d
	jle	.L324
.LVL347:
.L596:
	.loc 2 18 9 is_stmt 0 view .LVU1086
	movl	%r15d, %edi
.LVL348:
	.p2align 4,,10
.L322:
	.loc 2 18 9 view .LVU1087
.LBE2677:
.LBE2676:
.LBE2708:
.LBE2733:
.LBE2760:
.LBE2791:
	.loc 2 82 5 is_stmt 1 view .LVU1088
	.loc 2 82 15 is_stmt 0 view .LVU1089
	movq	16(%rbp), %rbp
.LVL349:
	.loc 2 82 5 view .LVU1090
	testq	%rbp, %rbp
	je	.L321
.L798:
	.loc 2 83 9 is_stmt 1 view .LVU1091
.LVL350:
.LBB2792:
.LBI1983:
	.loc 2 71 5 view .LVU1092
.LBB2367:
	.loc 2 72 5 view .LVU1093
	.loc 2 75 5 view .LVU1094
	cmpl	%r13d, %esi
	jle	.L321
.LVL351:
.LBB2344:
.LBB2321:
	.loc 2 78 5 view .LVU1095
	.loc 2 79 5 view .LVU1096
.LBB2284:
.LBI2284:
	.loc 2 15 36 view .LVU1097
	.loc 2 15 36 is_stmt 0 view .LVU1098
.LBE2284:
	.loc 2 80 5 is_stmt 1 view .LVU1099
	.loc 2 80 15 is_stmt 0 view .LVU1100
	movq	8(%rbp), %r15
	.loc 2 80 5 view .LVU1101
	testq	%r15, %r15
	je	.L362
	.loc 2 81 9 is_stmt 1 view .LVU1102
.LVL352:
.LBB2285:
.LBI2122:
	.loc 2 71 5 view .LVU1103
.LBB2262:
	.loc 2 72 5 view .LVU1104
	cmpl	44(%rsp), %esi
	jl	.L363
	.loc 2 73 9 view .LVU1105
.LVL353:
.LBB2243:
.LBI2243:
	.loc 2 21 36 view .LVU1106
.LBB2244:
	.loc 2 21 57 view .LVU1107
	.loc 2 21 64 is_stmt 0 view .LVU1108
	movl	(%r15), %r12d
.LVL354:
.L364:
	.loc 2 21 64 view .LVU1109
.LBE2244:
.LBE2243:
.LBE2262:
.LBE2285:
.LBB2286:
.LBI2286:
	.loc 2 17 41 is_stmt 1 view .LVU1110
.LBB2287:
	.loc 2 18 9 view .LVU1111
	testl	%r12d, %r12d
	jle	.L362
.LVL355:
.L548:
	.loc 2 18 28 view .LVU1112
	.loc 2 18 28 is_stmt 0 view .LVU1113
.LBE2287:
.LBE2286:
	.loc 2 82 5 is_stmt 1 view .LVU1114
	.loc 2 82 15 is_stmt 0 view .LVU1115
	movq	16(%rbp), %rbp
.LVL356:
	.loc 2 82 5 view .LVU1116
	testq	%rbp, %rbp
	je	.L382
	.loc 2 83 9 is_stmt 1 view .LVU1117
.LVL357:
.LBB2290:
.LBI1987:
	.loc 2 71 5 view .LVU1118
.LBB2112:
	.loc 2 72 5 view .LVU1119
	.loc 2 75 5 view .LVU1120
	cmpl	44(%rsp), %esi
	movl	%r12d, %r15d
	jle	.L383
.LVL358:
.L547:
.LBB2099:
.LBB2087:
	.loc 2 78 5 view .LVU1121
	.loc 2 79 5 view .LVU1122
.LBB2070:
.LBI2070:
	.loc 2 15 36 view .LVU1123
	.loc 2 15 36 is_stmt 0 view .LVU1124
.LBE2070:
	.loc 2 80 5 is_stmt 1 view .LVU1125
	.loc 2 80 15 is_stmt 0 view .LVU1126
	movq	8(%rbp), %rax
	.loc 2 80 5 view .LVU1127
	testq	%rax, %rax
	je	.L384
	.loc 2 81 9 is_stmt 1 view .LVU1128
.LVL359:
.LBB2071:
.LBI2027:
	.loc 2 71 5 view .LVU1129
.LBB2061:
	.loc 2 72 5 view .LVU1130
	cmpl	84(%rsp), %esi
	jge	.L787
	.loc 2 75 5 view .LVU1131
.LVL360:
.LBB2053:
.LBB2047:
	.loc 2 78 5 view .LVU1132
	.loc 2 79 5 view .LVU1133
.LBB2031:
.LBI2031:
	.loc 2 15 36 view .LVU1134
	.loc 2 15 36 is_stmt 0 view .LVU1135
.LBE2031:
	.loc 2 80 5 is_stmt 1 view .LVU1136
	.loc 2 80 15 is_stmt 0 view .LVU1137
	movq	8(%rax), %rcx
	movq	16(%rax), %r12
	.loc 2 80 5 view .LVU1138
	testq	%rcx, %rcx
	je	.L387
	.loc 2 81 9 is_stmt 1 view .LVU1139
.LVL361:
.LBB2032:
.LBI2032:
	.loc 2 71 5 view .LVU1140
.LBB2033:
	.loc 2 72 5 view .LVU1141
	cmpl	88(%rsp), %esi
	jge	.L788
	.loc 2 75 5 view .LVU1142
	movl	88(%rsp), %r8d
	movl	44(%rsp), %edx
	call	_Z5get_yP4treeii.part.1
.LVL362:
	.loc 2 75 5 is_stmt 0 view .LVU1143
	movl	%eax, 96(%rsp)
.L389:
.LVL363:
	.loc 2 75 5 view .LVU1144
.LBE2033:
.LBE2032:
.LBB2037:
.LBI2037:
	.loc 2 17 41 is_stmt 1 view .LVU1145
.LBB2038:
	.loc 2 18 9 view .LVU1146
	movl	96(%rsp), %edx
	testl	%edx, %edx
	jle	.L387
	.loc 2 18 28 view .LVU1147
.LVL364:
	.loc 2 18 28 is_stmt 0 view .LVU1148
.LBE2038:
.LBE2037:
	.loc 2 82 5 is_stmt 1 view .LVU1149
	testq	%r12, %r12
	je	.L395
	.loc 2 83 9 view .LVU1150
.LVL365:
.LBB2039:
.LBI2039:
	.loc 2 71 5 view .LVU1151
.LBB2040:
	.loc 2 72 5 view .LVU1152
	.loc 2 75 5 view .LVU1153
	cmpl	88(%rsp), %esi
	jle	.L395
.LVL366:
.L392:
	.loc 2 75 5 is_stmt 0 view .LVU1154
	movl	84(%rsp), %r8d
	movq	%r12, %rcx
	movl	88(%rsp), %edx
	call	_Z5get_yP4treeii.part.1
.LVL367:
	.loc 2 75 5 view .LVU1155
.LBE2040:
.LBE2039:
.LBE2047:
.LBE2053:
.LBE2061:
.LBE2071:
.LBE2087:
.LBE2099:
.LBE2112:
.LBE2290:
.LBE2321:
.LBE2344:
.LBE2367:
.LBE2792:
.LBE2843:
.LBE2879:
.LBE2912:
.LBE3750:
	.loc 2 18 9 is_stmt 1 view .LVU1156
	movl	96(%rsp), %ecx
	cmpl	%ecx, %eax
	cmovge	%eax, %ecx
	movl	%ecx, %r12d
.LVL368:
.L386:
.LBB3751:
.LBB2913:
.LBB2880:
.LBB2844:
.LBB2793:
.LBB2368:
.LBB2345:
.LBB2322:
.LBB2291:
.LBB2113:
.LBB2100:
.LBB2088:
.LBB2072:
.LBI2072:
	.loc 2 17 41 view .LVU1157
.LBB2073:
	.loc 2 18 9 view .LVU1158
	testl	%r12d, %r12d
	jle	.L384
	.loc 2 18 28 view .LVU1159
.LVL369:
	.loc 2 18 28 is_stmt 0 view .LVU1160
.LBE2073:
.LBE2072:
	.loc 2 82 5 is_stmt 1 view .LVU1161
	.loc 2 82 15 is_stmt 0 view .LVU1162
	movq	16(%rbp), %rax
	.loc 2 82 5 view .LVU1163
	testq	%rax, %rax
	je	.L394
	.loc 2 83 9 is_stmt 1 view .LVU1164
.LVL370:
.LBB2074:
.LBI1991:
	.loc 2 71 5 view .LVU1165
.LBB2022:
	.loc 2 72 5 view .LVU1166
	.loc 2 75 5 view .LVU1167
	cmpl	84(%rsp), %esi
	movl	%r12d, 96(%rsp)
	jle	.L395
.LVL371:
.L546:
.LBB2017:
.LBB2012:
	.loc 2 78 5 view .LVU1168
	.loc 2 79 5 view .LVU1169
.LBB1995:
.LBI1995:
	.loc 2 15 36 view .LVU1170
	.loc 2 15 36 is_stmt 0 view .LVU1171
.LBE1995:
	.loc 2 80 5 is_stmt 1 view .LVU1172
	.loc 2 80 15 is_stmt 0 view .LVU1173
	movq	8(%rax), %rcx
	movq	16(%rax), %rbp
.LVL372:
	.loc 2 80 5 view .LVU1174
	testq	%rcx, %rcx
	je	.L396
	.loc 2 81 9 is_stmt 1 view .LVU1175
.LVL373:
.LBB1996:
.LBI1996:
	.loc 2 71 5 view .LVU1176
.LBB1997:
	.loc 2 72 5 view .LVU1177
	cmpl	92(%rsp), %esi
	jge	.L789
	.loc 2 75 5 view .LVU1178
	movl	92(%rsp), %r8d
	movl	84(%rsp), %edx
	call	_Z5get_yP4treeii.part.1
.LVL374:
	.loc 2 75 5 is_stmt 0 view .LVU1179
	movl	%eax, %r12d
.L398:
.LVL375:
	.loc 2 75 5 view .LVU1180
.LBE1997:
.LBE1996:
.LBB2001:
.LBI2001:
	.loc 2 17 41 is_stmt 1 view .LVU1181
.LBB2002:
	.loc 2 18 9 view .LVU1182
	testl	%r12d, %r12d
	jle	.L396
	.loc 2 18 28 view .LVU1183
.LVL376:
	.loc 2 18 28 is_stmt 0 view .LVU1184
.LBE2002:
.LBE2001:
	.loc 2 82 5 is_stmt 1 view .LVU1185
	testq	%rbp, %rbp
	je	.L399
	.loc 2 83 9 view .LVU1186
.LVL377:
.LBB2003:
.LBI2003:
	.loc 2 71 5 view .LVU1187
.LBB2004:
	.loc 2 72 5 view .LVU1188
	.loc 2 75 5 view .LVU1189
	cmpl	92(%rsp), %esi
	jle	.L399
	movl	%r12d, 104(%rsp)
.LVL378:
.L545:
	.loc 2 75 5 is_stmt 0 view .LVU1190
	movl	92(%rsp), %edx
	movl	%r11d, %r8d
	movq	%rbp, %rcx
	call	_Z5get_yP4treeii.part.1
.LVL379:
	movl	%eax, %r12d
.LVL380:
	.loc 2 75 5 view .LVU1191
.LBE2004:
.LBE2003:
.LBB2006:
.LBI2006:
	.loc 2 17 41 is_stmt 1 view .LVU1192
.LBB2007:
	.loc 2 18 9 view .LVU1193
	movl	104(%rsp), %eax
	cmpl	%eax, %r12d
	cmovle	%eax, %r12d
.LVL381:
.L399:
	.loc 2 18 9 is_stmt 0 view .LVU1194
.LBE2007:
.LBE2006:
.LBE2012:
.LBE2017:
.LBE2022:
.LBE2074:
.LBB2075:
.LBI2075:
	.loc 2 17 41 is_stmt 1 view .LVU1195
.LBB2076:
	.loc 2 18 9 view .LVU1196
	cmpl	96(%rsp), %r12d
	jle	.L395
.LVL382:
.L394:
	.loc 2 18 9 is_stmt 0 view .LVU1197
.LBE2076:
.LBE2075:
.LBE2088:
.LBE2100:
.LBE2113:
.LBE2291:
.LBB2292:
.LBI2292:
	.loc 2 17 41 is_stmt 1 view .LVU1198
.LBB2293:
	.loc 2 18 9 view .LVU1199
	cmpl	%r15d, %r12d
	jle	.L383
.LVL383:
.L382:
	.loc 2 18 9 is_stmt 0 view .LVU1200
.LBE2293:
.LBE2292:
.LBE2322:
.LBE2345:
.LBE2368:
.LBE2793:
.LBE2844:
.LBE2880:
.LBE2913:
.LBE3751:
	.loc 2 18 9 is_stmt 1 view .LVU1201
	cmpl	%r12d, %edi
	cmovl	%r12d, %edi
.LVL384:
	.loc 2 18 9 is_stmt 0 view .LVU1202
	jmp	.L321
.LVL385:
	.p2align 4,,10
.L402:
.LBB3752:
.LBB3715:
	.loc 2 75 5 is_stmt 1 view .LVU1203
	.loc 2 76 16 is_stmt 0 view .LVU1204
	xorl	%edi, %edi
	.loc 2 75 5 view .LVU1205
	testl	%esi, %esi
	jle	.L403
.LVL386:
.LBB2948:
.LBB2949:
	.loc 2 78 5 is_stmt 1 view .LVU1206
	.loc 2 79 5 view .LVU1207
.LBB2950:
.LBI2950:
	.loc 2 15 36 view .LVU1208
	.loc 2 15 36 is_stmt 0 view .LVU1209
.LBE2950:
	.loc 2 80 5 is_stmt 1 view .LVU1210
	.loc 2 80 15 is_stmt 0 view .LVU1211
	movq	8(%rbp), %r12
	.loc 2 80 5 view .LVU1212
	testq	%r12, %r12
	je	.L404
	.loc 2 81 9 is_stmt 1 view .LVU1213
.LVL387:
.LBB2952:
.LBI2952:
	.loc 2 71 5 view .LVU1214
.LBB2953:
	.loc 2 72 5 view .LVU1215
	cmpl	%r13d, %esi
	jge	.L790
	.loc 2 75 5 view .LVU1216
.LVL388:
.LBB2954:
.LBB2955:
	.loc 2 78 5 view .LVU1217
	.loc 2 79 5 view .LVU1218
.LBB2956:
.LBI2956:
	.loc 2 15 36 view .LVU1219
	.loc 2 15 36 is_stmt 0 view .LVU1220
.LBE2956:
	.loc 2 80 5 is_stmt 1 view .LVU1221
	.loc 2 80 15 is_stmt 0 view .LVU1222
	movq	8(%r12), %r15
	.loc 2 80 5 view .LVU1223
	testq	%r15, %r15
	je	.L407
	.loc 2 81 9 is_stmt 1 view .LVU1224
.LVL389:
.LBB2957:
.LBI2957:
	.loc 2 71 5 view .LVU1225
.LBB2958:
	.loc 2 72 5 view .LVU1226
	cmpl	40(%rsp), %esi
	jl	.L408
	.loc 2 73 9 view .LVU1227
.LVL390:
.LBB2959:
.LBI2959:
	.loc 2 21 36 view .LVU1228
.LBB2960:
	.loc 2 21 57 view .LVU1229
	.loc 2 21 64 is_stmt 0 view .LVU1230
	movl	(%r15), %edi
.LVL391:
.L409:
	.loc 2 21 64 view .LVU1231
.LBE2960:
.LBE2959:
.LBE2958:
.LBE2957:
.LBB3088:
.LBI3088:
	.loc 2 17 41 is_stmt 1 view .LVU1232
.LBB3089:
	.loc 2 18 9 view .LVU1233
	testl	%edi, %edi
	jle	.L407
.LVL392:
.L427:
	.loc 2 18 28 view .LVU1234
	.loc 2 18 28 is_stmt 0 view .LVU1235
.LBE3089:
.LBE3088:
	.loc 2 82 5 is_stmt 1 view .LVU1236
	.loc 2 82 15 is_stmt 0 view .LVU1237
	movq	16(%r12), %r12
.LVL393:
	.loc 2 82 5 view .LVU1238
	testq	%r12, %r12
	je	.L403
	.loc 2 83 9 is_stmt 1 view .LVU1239
.LVL394:
.LBB3095:
.LBI3095:
	.loc 2 71 5 view .LVU1240
.LBB3096:
	.loc 2 72 5 view .LVU1241
	.loc 2 75 5 view .LVU1242
	cmpl	40(%rsp), %esi
	jle	.L580
.LVL395:
.L428:
.LBB3097:
.LBB3098:
	.loc 2 78 5 view .LVU1243
	.loc 2 79 5 view .LVU1244
.LBB3099:
.LBI3099:
	.loc 2 15 36 view .LVU1245
	.loc 2 15 36 is_stmt 0 view .LVU1246
.LBE3099:
	.loc 2 80 5 is_stmt 1 view .LVU1247
	.loc 2 80 15 is_stmt 0 view .LVU1248
	movq	8(%r12), %rax
	.loc 2 80 5 view .LVU1249
	testq	%rax, %rax
	je	.L430
	.loc 2 81 9 is_stmt 1 view .LVU1250
.LVL396:
.LBB3100:
.LBI3100:
	.loc 2 71 5 view .LVU1251
.LBB3101:
	.loc 2 72 5 view .LVU1252
	cmpl	64(%rsp), %esi
	jge	.L791
	.loc 2 75 5 view .LVU1253
.LVL397:
.LBB3102:
.LBB3103:
	.loc 2 78 5 view .LVU1254
	.loc 2 79 5 view .LVU1255
.LBB3104:
.LBI3104:
	.loc 2 15 36 view .LVU1256
	.loc 2 15 36 is_stmt 0 view .LVU1257
.LBE3104:
	.loc 2 80 5 is_stmt 1 view .LVU1258
	.loc 2 80 15 is_stmt 0 view .LVU1259
	movq	8(%rax), %rcx
	movq	16(%rax), %rax
.LVL398:
	.loc 2 80 5 view .LVU1260
	testq	%rcx, %rcx
	movq	%rax, 96(%rsp)
	je	.L433
	.loc 2 81 9 is_stmt 1 view .LVU1261
.LVL399:
.LBB3105:
.LBI3105:
	.loc 2 71 5 view .LVU1262
.LBB3106:
	.loc 2 72 5 view .LVU1263
	cmpl	68(%rsp), %esi
	jge	.L792
	.loc 2 75 5 view .LVU1264
	movl	68(%rsp), %r8d
	movl	40(%rsp), %edx
	call	_Z5get_yP4treeii.part.1
.LVL400:
	.loc 2 75 5 is_stmt 0 view .LVU1265
	movl	%eax, %r15d
.L435:
.LVL401:
	.loc 2 75 5 view .LVU1266
.LBE3106:
.LBE3105:
.LBB3110:
.LBI3110:
	.loc 2 17 41 is_stmt 1 view .LVU1267
.LBB3111:
	.loc 2 18 9 view .LVU1268
	testl	%r15d, %r15d
	jle	.L433
	.loc 2 18 28 view .LVU1269
.LVL402:
	.loc 2 18 28 is_stmt 0 view .LVU1270
.LBE3111:
.LBE3110:
	.loc 2 82 5 is_stmt 1 view .LVU1271
	cmpq	$0, 96(%rsp)
	je	.L438
	.loc 2 83 9 view .LVU1272
.LVL403:
.LBB3112:
.LBI3112:
	.loc 2 71 5 view .LVU1273
.LBB3113:
	.loc 2 72 5 view .LVU1274
	.loc 2 75 5 view .LVU1275
	cmpl	68(%rsp), %esi
	jle	.L438
.LVL404:
.L437:
	.loc 2 75 5 is_stmt 0 view .LVU1276
	movl	64(%rsp), %r8d
	movl	68(%rsp), %edx
	movq	96(%rsp), %rcx
	call	_Z5get_yP4treeii.part.1
.LVL405:
	.loc 2 75 5 view .LVU1277
.LBE3113:
.LBE3112:
.LBE3103:
.LBE3102:
.LBE3101:
.LBE3100:
.LBE3098:
.LBE3097:
.LBE3096:
.LBE3095:
.LBE2955:
.LBE2954:
.LBE2953:
.LBE2952:
.LBE2949:
.LBE2948:
.LBE3715:
.LBE3752:
	.loc 2 18 9 is_stmt 1 view .LVU1278
	cmpl	%eax, %r15d
	cmovl	%eax, %r15d
.LVL406:
.L432:
.LBB3753:
.LBB3716:
.LBB3683:
.LBB3651:
.LBB3291:
.LBB3265:
.LBB3238:
.LBB3213:
.LBB3182:
.LBB3174:
.LBB3167:
.LBB3160:
.LBB3126:
.LBI3126:
	.loc 2 17 41 view .LVU1279
.LBB3127:
	.loc 2 18 9 view .LVU1280
	testl	%r15d, %r15d
	jle	.L430
	.loc 2 18 28 view .LVU1281
.LVL407:
	.loc 2 18 28 is_stmt 0 view .LVU1282
.LBE3127:
.LBE3126:
	.loc 2 82 5 is_stmt 1 view .LVU1283
	.loc 2 82 15 is_stmt 0 view .LVU1284
	movq	16(%r12), %rax
	.loc 2 82 5 view .LVU1285
	testq	%rax, %rax
	je	.L438
	.loc 2 83 9 is_stmt 1 view .LVU1286
.LVL408:
.LBB3128:
.LBI3128:
	.loc 2 71 5 view .LVU1287
.LBB3129:
	.loc 2 72 5 view .LVU1288
	.loc 2 75 5 view .LVU1289
	cmpl	64(%rsp), %esi
	jle	.L438
.LVL409:
.L497:
.LBB3130:
.LBB3131:
	.loc 2 78 5 view .LVU1290
	.loc 2 79 5 view .LVU1291
.LBB3132:
.LBI3132:
	.loc 2 15 36 view .LVU1292
	.loc 2 15 36 is_stmt 0 view .LVU1293
.LBE3132:
	.loc 2 80 5 is_stmt 1 view .LVU1294
	.loc 2 80 15 is_stmt 0 view .LVU1295
	movq	8(%rax), %rcx
	movq	16(%rax), %r12
.LVL410:
	.loc 2 80 5 view .LVU1296
	testq	%rcx, %rcx
	je	.L439
	.loc 2 81 9 is_stmt 1 view .LVU1297
.LVL411:
.LBB3133:
.LBI3133:
	.loc 2 71 5 view .LVU1298
.LBB3134:
	.loc 2 72 5 view .LVU1299
	cmpl	72(%rsp), %esi
	jge	.L793
	.loc 2 75 5 view .LVU1300
	movl	72(%rsp), %r8d
	movl	64(%rsp), %edx
	call	_Z5get_yP4treeii.part.1
.LVL412:
.L441:
	.loc 2 75 5 is_stmt 0 view .LVU1301
.LBE3134:
.LBE3133:
.LBB3138:
.LBI3138:
	.loc 2 17 41 is_stmt 1 view .LVU1302
.LBB3139:
	.loc 2 18 9 view .LVU1303
	testl	%eax, %eax
	jle	.L439
	.loc 2 18 28 view .LVU1304
.LVL413:
	.loc 2 18 28 is_stmt 0 view .LVU1305
.LBE3139:
.LBE3138:
	.loc 2 82 5 is_stmt 1 view .LVU1306
	testq	%r12, %r12
	je	.L442
	.loc 2 83 9 view .LVU1307
.LVL414:
.LBB3140:
.LBI3140:
	.loc 2 71 5 view .LVU1308
.LBB3141:
	.loc 2 72 5 view .LVU1309
	.loc 2 75 5 view .LVU1310
	cmpl	72(%rsp), %esi
	jle	.L442
	movl	%eax, 96(%rsp)
.LVL415:
.L542:
	.loc 2 75 5 is_stmt 0 view .LVU1311
	movl	72(%rsp), %edx
	movq	%r12, %rcx
	movl	%r13d, %r8d
	call	_Z5get_yP4treeii.part.1
.LVL416:
	.loc 2 75 5 view .LVU1312
.LBE3141:
.LBE3140:
.LBB3143:
.LBI3143:
	.loc 2 17 41 is_stmt 1 view .LVU1313
.LBB3144:
	.loc 2 18 9 view .LVU1314
	movl	96(%rsp), %ecx
	cmpl	%ecx, %eax
	cmovle	%ecx, %eax
.LVL417:
.L442:
	.loc 2 18 9 is_stmt 0 view .LVU1315
.LBE3144:
.LBE3143:
.LBE3131:
.LBE3130:
.LBE3129:
.LBE3128:
.LBE3160:
.LBE3167:
.LBE3174:
.LBE3182:
.LBE3213:
.LBE3238:
.LBE3265:
.LBE3291:
.LBE3651:
.LBE3683:
.LBE3716:
.LBE3753:
	.loc 2 18 9 is_stmt 1 view .LVU1316
	cmpl	%eax, %r15d
	cmovl	%eax, %r15d
.LVL418:
.L438:
.LBB3754:
.LBB3717:
.LBB3684:
.LBB3652:
.LBB3292:
.LBB3266:
.LBB3239:
.LBB3214:
.LBB3183:
.LBI3183:
	.loc 2 17 41 view .LVU1317
.LBB3184:
	.loc 2 18 9 view .LVU1318
	cmpl	%edi, %r15d
	jle	.L406
.LVL419:
.L589:
	.loc 2 18 9 is_stmt 0 view .LVU1319
	movl	%r15d, %edi
.LVL420:
	.p2align 4,,10
.L404:
	.loc 2 18 9 view .LVU1320
.LBE3184:
.LBE3183:
.LBE3214:
.LBE3239:
.LBE3266:
.LBE3292:
	.loc 2 82 5 is_stmt 1 view .LVU1321
	.loc 2 82 15 is_stmt 0 view .LVU1322
	movq	16(%rbp), %rbp
.LVL421:
	.loc 2 82 5 view .LVU1323
	testq	%rbp, %rbp
	je	.L403
.L797:
	.loc 2 83 9 is_stmt 1 view .LVU1324
.LVL422:
.LBB3293:
.LBI3293:
	.loc 2 71 5 view .LVU1325
.LBB3294:
	.loc 2 72 5 view .LVU1326
	.loc 2 75 5 view .LVU1327
	cmpl	%r13d, %esi
	jle	.L403
.LVL423:
.LBB3295:
.LBB3296:
	.loc 2 78 5 view .LVU1328
	.loc 2 79 5 view .LVU1329
.LBB3297:
.LBI3297:
	.loc 2 15 36 view .LVU1330
	.loc 2 15 36 is_stmt 0 view .LVU1331
.LBE3297:
	.loc 2 80 5 is_stmt 1 view .LVU1332
	.loc 2 80 15 is_stmt 0 view .LVU1333
	movq	8(%rbp), %r15
	.loc 2 80 5 view .LVU1334
	testq	%r15, %r15
	je	.L444
	.loc 2 81 9 is_stmt 1 view .LVU1335
.LVL424:
.LBB3298:
.LBI3298:
	.loc 2 71 5 view .LVU1336
.LBB3299:
	.loc 2 72 5 view .LVU1337
	cmpl	44(%rsp), %esi
	jl	.L445
	.loc 2 73 9 view .LVU1338
.LVL425:
.LBB3300:
.LBI3300:
	.loc 2 21 36 view .LVU1339
.LBB3301:
	.loc 2 21 57 view .LVU1340
	.loc 2 21 64 is_stmt 0 view .LVU1341
	movl	(%r15), %r12d
.LVL426:
.L446:
	.loc 2 21 64 view .LVU1342
.LBE3301:
.LBE3300:
.LBE3299:
.LBE3298:
.LBB3417:
.LBI3417:
	.loc 2 17 41 is_stmt 1 view .LVU1343
.LBB3418:
	.loc 2 18 9 view .LVU1344
	testl	%r12d, %r12d
	jle	.L444
.LVL427:
.L541:
	.loc 2 18 28 view .LVU1345
	.loc 2 18 28 is_stmt 0 view .LVU1346
.LBE3418:
.LBE3417:
	.loc 2 82 5 is_stmt 1 view .LVU1347
	.loc 2 82 15 is_stmt 0 view .LVU1348
	movq	16(%rbp), %rbp
.LVL428:
	.loc 2 82 5 view .LVU1349
	testq	%rbp, %rbp
	je	.L464
	.loc 2 83 9 is_stmt 1 view .LVU1350
.LVL429:
.LBB3421:
.LBI3421:
	.loc 2 71 5 view .LVU1351
.LBB3422:
	.loc 2 72 5 view .LVU1352
	.loc 2 75 5 view .LVU1353
	cmpl	44(%rsp), %esi
	movl	%r12d, %r15d
	jle	.L465
.LVL430:
.L540:
.LBB3423:
.LBB3424:
	.loc 2 78 5 view .LVU1354
	.loc 2 79 5 view .LVU1355
.LBB3425:
.LBI3425:
	.loc 2 15 36 view .LVU1356
	.loc 2 15 36 is_stmt 0 view .LVU1357
.LBE3425:
	.loc 2 80 5 is_stmt 1 view .LVU1358
	.loc 2 80 15 is_stmt 0 view .LVU1359
	movq	8(%rbp), %rax
	.loc 2 80 5 view .LVU1360
	testq	%rax, %rax
	je	.L466
	.loc 2 81 9 is_stmt 1 view .LVU1361
.LVL431:
.LBB3426:
.LBI3426:
	.loc 2 71 5 view .LVU1362
.LBB3427:
	.loc 2 72 5 view .LVU1363
	cmpl	84(%rsp), %esi
	jge	.L794
	.loc 2 75 5 view .LVU1364
.LVL432:
.LBB3428:
.LBB3429:
	.loc 2 78 5 view .LVU1365
	.loc 2 79 5 view .LVU1366
.LBB3430:
.LBI3430:
	.loc 2 15 36 view .LVU1367
	.loc 2 15 36 is_stmt 0 view .LVU1368
.LBE3430:
	.loc 2 80 5 is_stmt 1 view .LVU1369
	.loc 2 80 15 is_stmt 0 view .LVU1370
	movq	8(%rax), %rcx
	movq	16(%rax), %r12
	.loc 2 80 5 view .LVU1371
	testq	%rcx, %rcx
	je	.L469
	.loc 2 81 9 is_stmt 1 view .LVU1372
.LVL433:
.LBB3431:
.LBI3431:
	.loc 2 71 5 view .LVU1373
.LBB3432:
	.loc 2 72 5 view .LVU1374
	cmpl	88(%rsp), %esi
	jge	.L795
	.loc 2 75 5 view .LVU1375
	movl	88(%rsp), %r8d
	movl	44(%rsp), %edx
	call	_Z5get_yP4treeii.part.1
.LVL434:
	.loc 2 75 5 is_stmt 0 view .LVU1376
	movl	%eax, 96(%rsp)
.L471:
.LVL435:
	.loc 2 75 5 view .LVU1377
.LBE3432:
.LBE3431:
.LBB3436:
.LBI3436:
	.loc 2 17 41 is_stmt 1 view .LVU1378
.LBB3437:
	.loc 2 18 9 view .LVU1379
	movl	96(%rsp), %eax
	testl	%eax, %eax
	jle	.L469
	.loc 2 18 28 view .LVU1380
.LVL436:
	.loc 2 18 28 is_stmt 0 view .LVU1381
.LBE3437:
.LBE3436:
	.loc 2 82 5 is_stmt 1 view .LVU1382
	testq	%r12, %r12
	je	.L477
	.loc 2 83 9 view .LVU1383
.LVL437:
.LBB3438:
.LBI3438:
	.loc 2 71 5 view .LVU1384
.LBB3439:
	.loc 2 72 5 view .LVU1385
	.loc 2 75 5 view .LVU1386
	cmpl	88(%rsp), %esi
	jle	.L477
.LVL438:
.L474:
	.loc 2 75 5 is_stmt 0 view .LVU1387
	movl	84(%rsp), %r8d
	movq	%r12, %rcx
	movl	88(%rsp), %edx
	call	_Z5get_yP4treeii.part.1
.LVL439:
	.loc 2 75 5 view .LVU1388
.LBE3439:
.LBE3438:
.LBE3429:
.LBE3428:
.LBE3427:
.LBE3426:
.LBE3424:
.LBE3423:
.LBE3422:
.LBE3421:
.LBE3296:
.LBE3295:
.LBE3294:
.LBE3293:
.LBE3652:
.LBE3684:
.LBE3717:
.LBE3754:
	.loc 2 18 9 is_stmt 1 view .LVU1389
	movl	96(%rsp), %ecx
	cmpl	%eax, %ecx
	cmovl	%eax, %ecx
	movl	%ecx, %r12d
.LVL440:
.L468:
.LBB3755:
.LBB3718:
.LBB3685:
.LBB3653:
.LBB3602:
.LBB3582:
.LBB3562:
.LBB3542:
.LBB3515:
.LBB3506:
.LBB3498:
.LBB3490:
.LBB3452:
.LBI3452:
	.loc 2 17 41 view .LVU1390
.LBB3453:
	.loc 2 18 9 view .LVU1391
	testl	%r12d, %r12d
	jle	.L466
	.loc 2 18 28 view .LVU1392
.LVL441:
	.loc 2 18 28 is_stmt 0 view .LVU1393
.LBE3453:
.LBE3452:
	.loc 2 82 5 is_stmt 1 view .LVU1394
	.loc 2 82 15 is_stmt 0 view .LVU1395
	movq	16(%rbp), %rax
	.loc 2 82 5 view .LVU1396
	testq	%rax, %rax
	je	.L476
	.loc 2 83 9 is_stmt 1 view .LVU1397
.LVL442:
.LBB3454:
.LBI3454:
	.loc 2 71 5 view .LVU1398
.LBB3455:
	.loc 2 72 5 view .LVU1399
	.loc 2 75 5 view .LVU1400
	cmpl	84(%rsp), %esi
	movl	%r12d, 96(%rsp)
	jle	.L477
.LVL443:
.L539:
.LBB3456:
.LBB3457:
	.loc 2 78 5 view .LVU1401
	.loc 2 79 5 view .LVU1402
.LBB3458:
.LBI3458:
	.loc 2 15 36 view .LVU1403
	.loc 2 15 36 is_stmt 0 view .LVU1404
.LBE3458:
	.loc 2 80 5 is_stmt 1 view .LVU1405
	.loc 2 80 15 is_stmt 0 view .LVU1406
	movq	8(%rax), %rcx
	movq	16(%rax), %rbp
.LVL444:
	.loc 2 80 5 view .LVU1407
	testq	%rcx, %rcx
	je	.L478
	.loc 2 81 9 is_stmt 1 view .LVU1408
.LVL445:
.LBB3459:
.LBI3459:
	.loc 2 71 5 view .LVU1409
.LBB3460:
	.loc 2 72 5 view .LVU1410
	cmpl	92(%rsp), %esi
	jge	.L796
	.loc 2 75 5 view .LVU1411
	movl	92(%rsp), %r8d
	movl	84(%rsp), %edx
	call	_Z5get_yP4treeii.part.1
.LVL446:
	.loc 2 75 5 is_stmt 0 view .LVU1412
	movl	%eax, %r12d
.L480:
.LVL447:
	.loc 2 75 5 view .LVU1413
.LBE3460:
.LBE3459:
.LBB3464:
.LBI3464:
	.loc 2 17 41 is_stmt 1 view .LVU1414
.LBB3465:
	.loc 2 18 9 view .LVU1415
	testl	%r12d, %r12d
	jle	.L478
	.loc 2 18 28 view .LVU1416
.LVL448:
	.loc 2 18 28 is_stmt 0 view .LVU1417
.LBE3465:
.LBE3464:
	.loc 2 82 5 is_stmt 1 view .LVU1418
	testq	%rbp, %rbp
	je	.L481
	.loc 2 83 9 view .LVU1419
.LVL449:
.LBB3466:
.LBI3466:
	.loc 2 71 5 view .LVU1420
.LBB3467:
	.loc 2 72 5 view .LVU1421
	.loc 2 75 5 view .LVU1422
	cmpl	92(%rsp), %esi
	jle	.L481
	movl	%r12d, 104(%rsp)
.LVL450:
.L538:
	.loc 2 75 5 is_stmt 0 view .LVU1423
	movl	92(%rsp), %edx
	movl	%r11d, %r8d
	movq	%rbp, %rcx
	call	_Z5get_yP4treeii.part.1
.LVL451:
	movl	%eax, %r12d
.LVL452:
	.loc 2 75 5 view .LVU1424
.LBE3467:
.LBE3466:
.LBB3469:
.LBI3469:
	.loc 2 17 41 is_stmt 1 view .LVU1425
.LBB3470:
	.loc 2 18 9 view .LVU1426
	movl	104(%rsp), %eax
	cmpl	%eax, %r12d
	cmovle	%eax, %r12d
.LVL453:
.L481:
	.loc 2 18 9 is_stmt 0 view .LVU1427
.LBE3470:
.LBE3469:
.LBE3457:
.LBE3456:
.LBE3455:
.LBE3454:
.LBB3481:
.LBI3481:
	.loc 2 17 41 is_stmt 1 view .LVU1428
.LBB3482:
	.loc 2 18 9 view .LVU1429
	cmpl	96(%rsp), %r12d
	jle	.L477
.LVL454:
.L476:
	.loc 2 18 9 is_stmt 0 view .LVU1430
.LBE3482:
.LBE3481:
.LBE3490:
.LBE3498:
.LBE3506:
.LBE3515:
.LBB3516:
.LBI3516:
	.loc 2 17 41 is_stmt 1 view .LVU1431
.LBB3517:
	.loc 2 18 9 view .LVU1432
	cmpl	%r15d, %r12d
	jle	.L465
.LVL455:
.L464:
	.loc 2 18 9 is_stmt 0 view .LVU1433
.LBE3517:
.LBE3516:
.LBE3542:
.LBE3562:
.LBE3582:
.LBE3602:
.LBE3653:
.LBE3685:
.LBE3718:
.LBE3755:
	.loc 2 18 9 is_stmt 1 view .LVU1434
	cmpl	%r12d, %edi
	cmovl	%r12d, %edi
.LVL456:
	.loc 2 18 9 is_stmt 0 view .LVU1435
	jmp	.L403
.LVL457:
	.p2align 4,,10
.L554:
.LBB3756:
.LBB1976:
	.loc 2 15 70 view .LVU1436
	xorl	%ebx, %ebx
.LBE1976:
.LBE3756:
	.loc 2 102 5 is_stmt 1 view .LVU1437
.LVL458:
	.loc 2 21 57 view .LVU1438
.L316:
	.loc 2 103 1 is_stmt 0 view .LVU1439
	movl	%ebx, %eax
	addq	$120, %rsp
	.cfi_remember_state
	.cfi_def_cfa_offset 72
	popq	%rbx
	.cfi_restore 3
	.cfi_def_cfa_offset 64
	popq	%rsi
	.cfi_restore 4
	.cfi_def_cfa_offset 56
	popq	%rdi
	.cfi_restore 5
	.cfi_def_cfa_offset 48
	popq	%rbp
	.cfi_restore 6
	.cfi_def_cfa_offset 40
	popq	%r12
	.cfi_restore 12
	.cfi_def_cfa_offset 32
	popq	%r13
	.cfi_restore 13
	.cfi_def_cfa_offset 24
	popq	%r14
	.cfi_restore 14
	.cfi_def_cfa_offset 16
	popq	%r15
	.cfi_restore 15
	.cfi_def_cfa_offset 8
	ret
.LVL459:
	.p2align 4,,10
.L790:
	.cfi_restore_state
.LBB3757:
.LBB3719:
.LBB3686:
.LBB3654:
.LBB3603:
.LBB3267:
	.loc 2 73 9 is_stmt 1 view .LVU1440
.LBB3240:
.LBI3240:
	.loc 2 21 36 view .LVU1441
.LBB3241:
	.loc 2 21 57 view .LVU1442
	.loc 2 21 64 is_stmt 0 view .LVU1443
	movl	(%r12), %edi
.LVL460:
.L406:
	.loc 2 21 64 view .LVU1444
.LBE3241:
.LBE3240:
.LBE3267:
.LBE3603:
.LBB3604:
.LBI3604:
	.loc 2 17 41 is_stmt 1 view .LVU1445
.LBB3605:
	.loc 2 18 9 view .LVU1446
.LBE3605:
.LBE3604:
	.loc 2 82 15 is_stmt 0 view .LVU1447
	movq	16(%rbp), %rbp
.LVL461:
.LBB3607:
.LBB2951:
	.loc 2 15 70 view .LVU1448
	testl	%edi, %edi
	movl	$0, %eax
	cmovle	%eax, %edi
.LVL462:
	.loc 2 15 70 view .LVU1449
.LBE2951:
.LBE3607:
	.loc 2 82 5 is_stmt 1 view .LVU1450
	testq	%rbp, %rbp
	jne	.L797
	jmp	.L403
.LVL463:
	.p2align 4,,10
.L783:
	.loc 2 82 5 is_stmt 0 view .LVU1451
.LBE3654:
.LBE3686:
.LBE3719:
.LBE3757:
.LBB3758:
.LBB2914:
.LBB2881:
.LBB2845:
.LBB2794:
.LBB2761:
	.loc 2 73 9 is_stmt 1 view .LVU1452
.LBB2734:
.LBI2734:
	.loc 2 21 36 view .LVU1453
.LBB2735:
	.loc 2 21 57 view .LVU1454
	.loc 2 21 64 is_stmt 0 view .LVU1455
	movl	(%r12), %edi
.LVL464:
.L324:
	.loc 2 21 64 view .LVU1456
.LBE2735:
.LBE2734:
.LBE2761:
.LBE2794:
.LBB2795:
.LBI2795:
	.loc 2 17 41 is_stmt 1 view .LVU1457
.LBB2796:
	.loc 2 18 9 view .LVU1458
.LBE2796:
.LBE2795:
	.loc 2 82 15 is_stmt 0 view .LVU1459
	movq	16(%rbp), %rbp
.LVL465:
.LBB2798:
.LBB2788:
	.loc 2 15 70 view .LVU1460
	testl	%edi, %edi
	movl	$0, %eax
	cmovle	%eax, %edi
.LVL466:
	.loc 2 15 70 view .LVU1461
.LBE2788:
.LBE2798:
	.loc 2 82 5 is_stmt 1 view .LVU1462
	testq	%rbp, %rbp
	jne	.L798
	jmp	.L321
.LVL467:
	.p2align 4,,10
.L325:
.LBB2799:
.LBB2762:
.LBB2736:
.LBB2709:
	.loc 2 82 5 view .LVU1463
	.loc 2 82 15 is_stmt 0 view .LVU1464
	movq	16(%r12), %r12
.LVL468:
	.loc 2 82 5 view .LVU1465
	testq	%r12, %r12
	je	.L778
	.loc 2 83 9 is_stmt 1 view .LVU1466
.LVL469:
.LBB2678:
	.loc 2 71 5 view .LVU1467
.LBB2656:
	.loc 2 72 5 view .LVU1468
	.loc 2 75 5 view .LVU1469
	xorl	%edi, %edi
	cmpl	40(%rsp), %esi
	jg	.L346
	jmp	.L321
.LVL470:
	.p2align 4,,10
.L407:
	.loc 2 75 5 is_stmt 0 view .LVU1470
.LBE2656:
.LBE2678:
.LBE2709:
.LBE2736:
.LBE2762:
.LBE2799:
.LBE2845:
.LBE2881:
.LBE2914:
.LBE3758:
.LBB3759:
.LBB3720:
.LBB3687:
.LBB3655:
.LBB3608:
.LBB3268:
.LBB3242:
.LBB3215:
	.loc 2 82 5 is_stmt 1 view .LVU1471
	.loc 2 82 15 is_stmt 0 view .LVU1472
	movq	16(%r12), %r12
.LVL471:
	.loc 2 82 5 view .LVU1473
	testq	%r12, %r12
	je	.L779
	.loc 2 83 9 is_stmt 1 view .LVU1474
.LVL472:
.LBB3185:
	.loc 2 71 5 view .LVU1475
.LBB3175:
	.loc 2 72 5 view .LVU1476
	.loc 2 75 5 view .LVU1477
	xorl	%edi, %edi
	cmpl	40(%rsp), %esi
	jg	.L428
	jmp	.L403
.LVL473:
	.p2align 4,,10
.L444:
	.loc 2 75 5 is_stmt 0 view .LVU1478
.LBE3175:
.LBE3185:
.LBE3215:
.LBE3242:
.LBE3268:
.LBE3608:
.LBB3609:
.LBB3583:
.LBB3563:
.LBB3543:
	.loc 2 82 5 is_stmt 1 view .LVU1479
	.loc 2 82 15 is_stmt 0 view .LVU1480
	movq	16(%rbp), %rbp
.LVL474:
	.loc 2 82 5 view .LVU1481
	testq	%rbp, %rbp
	je	.L403
	.loc 2 83 9 is_stmt 1 view .LVU1482
.LVL475:
.LBB3518:
	.loc 2 71 5 view .LVU1483
.LBB3507:
	.loc 2 72 5 view .LVU1484
	.loc 2 75 5 view .LVU1485
	xorl	%r15d, %r15d
	cmpl	44(%rsp), %esi
	jg	.L540
	jmp	.L403
.LVL476:
	.p2align 4,,10
.L362:
	.loc 2 75 5 is_stmt 0 view .LVU1486
.LBE3507:
.LBE3518:
.LBE3543:
.LBE3563:
.LBE3583:
.LBE3609:
.LBE3655:
.LBE3687:
.LBE3720:
.LBE3759:
.LBB3760:
.LBB2915:
.LBB2882:
.LBB2846:
.LBB2800:
.LBB2369:
.LBB2346:
.LBB2323:
	.loc 2 82 5 is_stmt 1 view .LVU1487
	.loc 2 82 15 is_stmt 0 view .LVU1488
	movq	16(%rbp), %rbp
.LVL477:
	.loc 2 82 5 view .LVU1489
	testq	%rbp, %rbp
	je	.L321
	.loc 2 83 9 is_stmt 1 view .LVU1490
.LVL478:
.LBB2294:
	.loc 2 71 5 view .LVU1491
.LBB2114:
	.loc 2 72 5 view .LVU1492
	.loc 2 75 5 view .LVU1493
	xorl	%r15d, %r15d
	cmpl	44(%rsp), %esi
	jg	.L547
	jmp	.L321
.LVL479:
.L778:
	.loc 2 75 5 is_stmt 0 view .LVU1494
.LBE2114:
.LBE2294:
.LBE2323:
.LBE2346:
.LBE2369:
.LBE2800:
.LBB2801:
.LBB2763:
.LBB2737:
.LBB2710:
.LBB2679:
.LBB2529:
.LBB2511:
.LBB2492:
.LBB2467:
.LBB2428:
.LBB2420:
.LBB2414:
	.loc 2 82 5 view .LVU1495
	xorl	%edi, %edi
	jmp	.L321
.LVL480:
.L779:
	.loc 2 82 5 view .LVU1496
.LBE2414:
.LBE2420:
.LBE2428:
.LBE2467:
.LBE2492:
.LBE2511:
.LBE2529:
.LBE2679:
.LBE2710:
.LBE2737:
.LBE2763:
.LBE2801:
.LBE2846:
.LBE2882:
.LBE2915:
.LBE3760:
.LBB3761:
.LBB3721:
.LBB3688:
.LBB3656:
.LBB3610:
.LBB3269:
.LBB3243:
.LBB3216:
.LBB3186:
.LBB3072:
.LBB2961:
.LBB2962:
.LBB2963:
.LBB2964:
.LBB2965:
.LBB2966:
	xorl	%edi, %edi
	jmp	.L403
.LVL481:
.L363:
	.loc 2 82 5 view .LVU1497
.LBE2966:
.LBE2965:
.LBE2964:
.LBE2963:
.LBE2962:
.LBE2961:
.LBE3072:
.LBE3186:
.LBE3216:
.LBE3243:
.LBE3269:
.LBE3610:
.LBE3656:
.LBE3688:
.LBE3721:
.LBE3761:
.LBB3762:
.LBB2916:
.LBB2883:
.LBB2847:
.LBB2802:
.LBB2370:
.LBB2347:
.LBB2324:
.LBB2295:
.LBB2263:
	.loc 2 75 5 is_stmt 1 view .LVU1498
.LBB2245:
.LBB2226:
	.loc 2 78 5 view .LVU1499
	.loc 2 79 5 view .LVU1500
.LBB2200:
.LBI2200:
	.loc 2 15 36 view .LVU1501
	.loc 2 15 36 is_stmt 0 view .LVU1502
.LBE2200:
	.loc 2 80 5 is_stmt 1 view .LVU1503
	.loc 2 80 15 is_stmt 0 view .LVU1504
	movq	8(%r15), %rax
	.loc 2 80 5 view .LVU1505
	testq	%rax, %rax
	je	.L799
	.loc 2 81 9 is_stmt 1 view .LVU1506
.LVL482:
.LBB2201:
.LBI2126:
	.loc 2 71 5 view .LVU1507
.LBB2157:
	.loc 2 72 5 view .LVU1508
	cmpl	76(%rsp), %esi
	jge	.L800
	.loc 2 75 5 view .LVU1509
.LVL483:
.LBB2150:
.LBB2145:
	.loc 2 78 5 view .LVU1510
	.loc 2 79 5 view .LVU1511
.LBB2130:
.LBI2130:
	.loc 2 15 36 view .LVU1512
	.loc 2 15 36 is_stmt 0 view .LVU1513
.LBE2130:
	.loc 2 80 5 is_stmt 1 view .LVU1514
	.loc 2 80 15 is_stmt 0 view .LVU1515
	movq	8(%rax), %rcx
	movq	16(%rax), %rax
	.loc 2 80 5 view .LVU1516
	testq	%rcx, %rcx
	movq	%rax, 104(%rsp)
	je	.L368
	.loc 2 81 9 is_stmt 1 view .LVU1517
.LVL484:
.LBB2131:
.LBI2131:
	.loc 2 71 5 view .LVU1518
.LBB2132:
	.loc 2 72 5 view .LVU1519
	cmpl	80(%rsp), %esi
	jge	.L801
	.loc 2 75 5 view .LVU1520
	movl	80(%rsp), %r8d
	movl	%r13d, %edx
	call	_Z5get_yP4treeii.part.1
.LVL485:
	.loc 2 75 5 is_stmt 0 view .LVU1521
	movl	%eax, %r12d
.L370:
.LVL486:
	.loc 2 75 5 view .LVU1522
.LBE2132:
.LBE2131:
.LBB2136:
.LBI2136:
	.loc 2 17 41 is_stmt 1 view .LVU1523
.LBB2137:
	.loc 2 18 9 view .LVU1524
	testl	%r12d, %r12d
	jle	.L368
	.loc 2 18 28 view .LVU1525
.LVL487:
	.loc 2 18 28 is_stmt 0 view .LVU1526
.LBE2137:
.LBE2136:
	.loc 2 82 5 is_stmt 1 view .LVU1527
	movq	16(%r15), %rax
	cmpq	$0, 104(%rsp)
	movq	%rax, 96(%rsp)
	je	.L802
	.loc 2 83 9 view .LVU1528
.LVL488:
.LBB2138:
.LBI2138:
	.loc 2 71 5 view .LVU1529
.LBB2139:
	.loc 2 72 5 view .LVU1530
	.loc 2 75 5 view .LVU1531
	cmpl	80(%rsp), %esi
	jle	.L373
.LVL489:
.L372:
	.loc 2 75 5 is_stmt 0 view .LVU1532
	movl	76(%rsp), %r8d
	movl	80(%rsp), %edx
	movq	104(%rsp), %rcx
	call	_Z5get_yP4treeii.part.1
.LVL490:
	.loc 2 75 5 view .LVU1533
.LBE2139:
.LBE2138:
.LBE2145:
.LBE2150:
.LBE2157:
.LBE2201:
.LBE2226:
.LBE2245:
.LBE2263:
.LBE2295:
.LBE2324:
.LBE2347:
.LBE2370:
.LBE2802:
.LBE2847:
.LBE2883:
.LBE2916:
.LBE3762:
	.loc 2 18 9 is_stmt 1 view .LVU1534
	cmpl	%eax, %r12d
	cmovl	%eax, %r12d
.LVL491:
.L367:
.LBB3763:
.LBB2917:
.LBB2884:
.LBB2848:
.LBB2803:
.LBB2371:
.LBB2348:
.LBB2325:
.LBB2296:
.LBB2264:
.LBB2246:
.LBB2227:
.LBB2202:
.LBI2202:
	.loc 2 17 41 view .LVU1535
.LBB2203:
	.loc 2 18 9 view .LVU1536
	testl	%r12d, %r12d
	jle	.L365
	.loc 2 18 28 view .LVU1537
.LVL492:
	.loc 2 18 28 is_stmt 0 view .LVU1538
.LBE2203:
.LBE2202:
	.loc 2 82 5 is_stmt 1 view .LVU1539
	cmpq	$0, 96(%rsp)
	je	.L518
	.loc 2 83 9 view .LVU1540
.LVL493:
.LBB2206:
.LBI2162:
	.loc 2 71 5 view .LVU1541
.LBB2191:
	.loc 2 72 5 view .LVU1542
	.loc 2 75 5 view .LVU1543
	cmpl	76(%rsp), %esi
	jle	.L563
.LVL494:
.L375:
.LBB2186:
.LBB2181:
	.loc 2 78 5 view .LVU1544
	.loc 2 79 5 view .LVU1545
.LBB2166:
.LBI2166:
	.loc 2 15 36 view .LVU1546
	.loc 2 15 36 is_stmt 0 view .LVU1547
.LBE2166:
	.loc 2 80 5 is_stmt 1 view .LVU1548
	.loc 2 80 15 is_stmt 0 view .LVU1549
	movq	96(%rsp), %rax
	movq	8(%rax), %rcx
	movq	16(%rax), %rax
	.loc 2 80 5 view .LVU1550
	testq	%rcx, %rcx
	movq	%rax, 96(%rsp)
	je	.L377
	.loc 2 81 9 is_stmt 1 view .LVU1551
.LVL495:
.LBB2167:
.LBI2167:
	.loc 2 71 5 view .LVU1552
.LBB2168:
	.loc 2 72 5 view .LVU1553
	cmpl	52(%rsp), %esi
	jge	.L803
	.loc 2 75 5 view .LVU1554
	movl	52(%rsp), %r8d
	movl	76(%rsp), %edx
	call	_Z5get_yP4treeii.part.1
.LVL496:
	.loc 2 75 5 is_stmt 0 view .LVU1555
	movl	%eax, %r15d
.LVL497:
.L379:
	.loc 2 75 5 view .LVU1556
.LBE2168:
.LBE2167:
.LBB2172:
.LBI2172:
	.loc 2 17 41 is_stmt 1 view .LVU1557
.LBB2173:
	.loc 2 18 9 view .LVU1558
	testl	%r15d, %r15d
	jle	.L377
	.loc 2 18 28 view .LVU1559
.LVL498:
	.loc 2 18 28 is_stmt 0 view .LVU1560
.LBE2173:
.LBE2172:
	.loc 2 82 5 is_stmt 1 view .LVU1561
	cmpq	$0, 96(%rsp)
	je	.L380
	.loc 2 83 9 view .LVU1562
.LVL499:
.LBB2174:
.LBI2174:
	.loc 2 71 5 view .LVU1563
.LBB2175:
	.loc 2 72 5 view .LVU1564
	.loc 2 75 5 view .LVU1565
	cmpl	52(%rsp), %esi
	jle	.L380
	movl	44(%rsp), %r8d
	movl	52(%rsp), %edx
	movq	96(%rsp), %rcx
	call	_Z5get_yP4treeii.part.1
.LVL500:
	.loc 2 75 5 is_stmt 0 view .LVU1566
.LBE2175:
.LBE2174:
.LBE2181:
.LBE2186:
.LBE2191:
.LBE2206:
.LBE2227:
.LBE2246:
.LBE2264:
.LBE2296:
.LBE2325:
.LBE2348:
.LBE2371:
.LBE2803:
.LBE2848:
.LBE2884:
.LBE2917:
.LBE3763:
	.loc 2 18 9 is_stmt 1 view .LVU1567
	cmpl	%eax, %r15d
	cmovl	%eax, %r15d
.LVL501:
.LBB3764:
.LBB2918:
.LBB2885:
.LBB2849:
.LBB2804:
.LBB2372:
.LBB2349:
.LBB2326:
.LBB2297:
.LBB2265:
.LBB2247:
.LBB2228:
.LBB2207:
.LBI2207:
	.loc 2 17 41 view .LVU1568
.LBB2208:
	.loc 2 18 9 view .LVU1569
	cmpl	%r12d, %r15d
	jle	.L364
	movl	%r15d, %r12d
	jmp	.L548
.LVL502:
	.p2align 4,,10
.L408:
	.loc 2 18 9 is_stmt 0 view .LVU1570
.LBE2208:
.LBE2207:
.LBE2228:
.LBE2247:
.LBE2265:
.LBE2297:
.LBE2326:
.LBE2349:
.LBE2372:
.LBE2804:
.LBE2849:
.LBE2885:
.LBE2918:
.LBE3764:
.LBB3765:
.LBB3722:
.LBB3689:
.LBB3657:
.LBB3611:
.LBB3270:
.LBB3244:
.LBB3217:
.LBB3187:
.LBB3073:
	.loc 2 75 5 is_stmt 1 view .LVU1571
.LBB3057:
.LBB3042:
	.loc 2 78 5 view .LVU1572
	.loc 2 79 5 view .LVU1573
.LBB2992:
.LBI2992:
	.loc 2 15 36 view .LVU1574
	.loc 2 15 36 is_stmt 0 view .LVU1575
.LBE2992:
	.loc 2 80 5 is_stmt 1 view .LVU1576
	.loc 2 80 15 is_stmt 0 view .LVU1577
	movq	8(%r15), %rax
	.loc 2 80 5 view .LVU1578
	testq	%rax, %rax
	je	.L804
	.loc 2 81 9 is_stmt 1 view .LVU1579
.LVL503:
.LBB2993:
.LBI2963:
	.loc 2 71 5 view .LVU1580
.LBB2988:
	.loc 2 72 5 view .LVU1581
	cmpl	56(%rsp), %esi
	jge	.L805
	.loc 2 75 5 view .LVU1582
.LVL504:
.LBB2983:
.LBB2980:
	.loc 2 78 5 view .LVU1583
	.loc 2 79 5 view .LVU1584
.LBB2967:
.LBI2967:
	.loc 2 15 36 view .LVU1585
	.loc 2 15 36 is_stmt 0 view .LVU1586
.LBE2967:
	.loc 2 80 5 is_stmt 1 view .LVU1587
	.loc 2 80 15 is_stmt 0 view .LVU1588
	movq	8(%rax), %rcx
	movq	16(%rax), %rax
	.loc 2 80 5 view .LVU1589
	testq	%rcx, %rcx
	movq	%rax, 104(%rsp)
	je	.L413
	.loc 2 81 9 is_stmt 1 view .LVU1590
.LVL505:
.LBB2968:
.LBI2968:
	.loc 2 71 5 view .LVU1591
.LBB2969:
	.loc 2 72 5 view .LVU1592
	cmpl	60(%rsp), %esi
	jge	.L806
	.loc 2 75 5 view .LVU1593
	movl	60(%rsp), %r8d
	xorl	%edx, %edx
	call	_Z5get_yP4treeii.part.1
.LVL506:
	.loc 2 75 5 is_stmt 0 view .LVU1594
	movl	%eax, %edi
.L415:
.LVL507:
	.loc 2 75 5 view .LVU1595
.LBE2969:
.LBE2968:
.LBB2973:
.LBI2973:
	.loc 2 17 41 is_stmt 1 view .LVU1596
.LBB2974:
	.loc 2 18 9 view .LVU1597
	testl	%edi, %edi
	jle	.L413
	.loc 2 18 28 view .LVU1598
.LVL508:
	.loc 2 18 28 is_stmt 0 view .LVU1599
.LBE2974:
.LBE2973:
	.loc 2 82 5 is_stmt 1 view .LVU1600
	movq	16(%r15), %rax
	cmpq	$0, 104(%rsp)
	movq	%rax, 96(%rsp)
	je	.L807
	.loc 2 83 9 view .LVU1601
.LVL509:
.LBB2975:
.LBI2975:
	.loc 2 71 5 view .LVU1602
.LBB2976:
	.loc 2 72 5 view .LVU1603
	.loc 2 75 5 view .LVU1604
	cmpl	60(%rsp), %esi
	jle	.L418
.LVL510:
.L417:
	.loc 2 75 5 is_stmt 0 view .LVU1605
	movl	56(%rsp), %r8d
	movl	60(%rsp), %edx
	movq	104(%rsp), %rcx
	call	_Z5get_yP4treeii.part.1
.LVL511:
	.loc 2 75 5 view .LVU1606
.LBE2976:
.LBE2975:
.LBE2980:
.LBE2983:
.LBE2988:
.LBE2993:
.LBE3042:
.LBE3057:
.LBE3073:
.LBE3187:
.LBE3217:
.LBE3244:
.LBE3270:
.LBE3611:
.LBE3657:
.LBE3689:
.LBE3722:
.LBE3765:
	.loc 2 18 9 is_stmt 1 view .LVU1607
	cmpl	%eax, %edi
	cmovl	%eax, %edi
.LVL512:
.L412:
.LBB3766:
.LBB3723:
.LBB3690:
.LBB3658:
.LBB3612:
.LBB3271:
.LBB3245:
.LBB3218:
.LBB3188:
.LBB3074:
.LBB3058:
.LBB3043:
.LBB2994:
.LBI2994:
	.loc 2 17 41 view .LVU1608
.LBB2995:
	.loc 2 18 9 view .LVU1609
	testl	%edi, %edi
	jle	.L410
	.loc 2 18 28 view .LVU1610
.LVL513:
	.loc 2 18 28 is_stmt 0 view .LVU1611
.LBE2995:
.LBE2994:
	.loc 2 82 5 is_stmt 1 view .LVU1612
	cmpq	$0, 96(%rsp)
	je	.L507
	.loc 2 83 9 view .LVU1613
.LVL514:
.LBB2998:
.LBI2998:
	.loc 2 71 5 view .LVU1614
.LBB2999:
	.loc 2 72 5 view .LVU1615
	.loc 2 75 5 view .LVU1616
	cmpl	56(%rsp), %esi
	jle	.L570
.LVL515:
.L420:
.LBB3000:
.LBB3001:
	.loc 2 78 5 view .LVU1617
	.loc 2 79 5 view .LVU1618
.LBB3002:
.LBI3002:
	.loc 2 15 36 view .LVU1619
	.loc 2 15 36 is_stmt 0 view .LVU1620
.LBE3002:
	.loc 2 80 5 is_stmt 1 view .LVU1621
	.loc 2 80 15 is_stmt 0 view .LVU1622
	movq	96(%rsp), %rax
	movq	8(%rax), %rcx
	movq	16(%rax), %rax
	.loc 2 80 5 view .LVU1623
	testq	%rcx, %rcx
	movq	%rax, 96(%rsp)
	je	.L422
	.loc 2 81 9 is_stmt 1 view .LVU1624
.LVL516:
.LBB3003:
.LBI3003:
	.loc 2 71 5 view .LVU1625
.LBB3004:
	.loc 2 72 5 view .LVU1626
	cmpl	48(%rsp), %esi
	jge	.L808
	.loc 2 75 5 view .LVU1627
	movl	48(%rsp), %r8d
	movl	56(%rsp), %edx
	call	_Z5get_yP4treeii.part.1
.LVL517:
	.loc 2 75 5 is_stmt 0 view .LVU1628
	movl	%eax, %r15d
.LVL518:
.L424:
	.loc 2 75 5 view .LVU1629
.LBE3004:
.LBE3003:
.LBB3008:
.LBI3008:
	.loc 2 17 41 is_stmt 1 view .LVU1630
.LBB3009:
	.loc 2 18 9 view .LVU1631
	testl	%r15d, %r15d
	jle	.L422
	.loc 2 18 28 view .LVU1632
.LVL519:
	.loc 2 18 28 is_stmt 0 view .LVU1633
.LBE3009:
.LBE3008:
	.loc 2 82 5 is_stmt 1 view .LVU1634
	cmpq	$0, 96(%rsp)
	je	.L425
	.loc 2 83 9 view .LVU1635
.LVL520:
.LBB3010:
.LBI3010:
	.loc 2 71 5 view .LVU1636
.LBB3011:
	.loc 2 72 5 view .LVU1637
	.loc 2 75 5 view .LVU1638
	cmpl	48(%rsp), %esi
	jle	.L425
	movl	40(%rsp), %r8d
	movl	48(%rsp), %edx
	movq	96(%rsp), %rcx
	call	_Z5get_yP4treeii.part.1
.LVL521:
	.loc 2 75 5 is_stmt 0 view .LVU1639
.LBE3011:
.LBE3010:
.LBE3001:
.LBE3000:
.LBE2999:
.LBE2998:
.LBE3043:
.LBE3058:
.LBE3074:
.LBE3188:
.LBE3218:
.LBE3245:
.LBE3271:
.LBE3612:
.LBE3658:
.LBE3690:
.LBE3723:
.LBE3766:
	.loc 2 18 9 is_stmt 1 view .LVU1640
	cmpl	%r15d, %eax
	cmovge	%eax, %r15d
.LVL522:
.LBB3767:
.LBB3724:
.LBB3691:
.LBB3659:
.LBB3613:
.LBB3272:
.LBB3246:
.LBB3219:
.LBB3189:
.LBB3075:
.LBB3059:
.LBB3044:
.LBB3023:
.LBI3023:
	.loc 2 17 41 view .LVU1641
.LBB3024:
	.loc 2 18 9 view .LVU1642
	cmpl	%edi, %r15d
	jle	.L409
	movl	%r15d, %edi
	jmp	.L427
.LVL523:
	.p2align 4,,10
.L445:
	.loc 2 18 9 is_stmt 0 view .LVU1643
.LBE3024:
.LBE3023:
.LBE3044:
.LBE3059:
.LBE3075:
.LBE3189:
.LBE3219:
.LBE3246:
.LBE3272:
.LBE3613:
.LBB3614:
.LBB3584:
.LBB3564:
.LBB3544:
.LBB3519:
.LBB3403:
	.loc 2 75 5 is_stmt 1 view .LVU1644
.LBB3302:
.LBB3303:
	.loc 2 78 5 view .LVU1645
	.loc 2 79 5 view .LVU1646
.LBB3304:
.LBI3304:
	.loc 2 15 36 view .LVU1647
	.loc 2 15 36 is_stmt 0 view .LVU1648
.LBE3304:
	.loc 2 80 5 is_stmt 1 view .LVU1649
	.loc 2 80 15 is_stmt 0 view .LVU1650
	movq	8(%r15), %rax
	.loc 2 80 5 view .LVU1651
	testq	%rax, %rax
	je	.L809
	.loc 2 81 9 is_stmt 1 view .LVU1652
.LVL524:
.LBB3305:
.LBI3305:
	.loc 2 71 5 view .LVU1653
.LBB3306:
	.loc 2 72 5 view .LVU1654
	cmpl	76(%rsp), %esi
	jge	.L810
	.loc 2 75 5 view .LVU1655
.LVL525:
.LBB3307:
.LBB3308:
	.loc 2 78 5 view .LVU1656
	.loc 2 79 5 view .LVU1657
.LBB3309:
.LBI3309:
	.loc 2 15 36 view .LVU1658
	.loc 2 15 36 is_stmt 0 view .LVU1659
.LBE3309:
	.loc 2 80 5 is_stmt 1 view .LVU1660
	.loc 2 80 15 is_stmt 0 view .LVU1661
	movq	8(%rax), %rcx
	movq	16(%rax), %rax
	.loc 2 80 5 view .LVU1662
	testq	%rcx, %rcx
	movq	%rax, 104(%rsp)
	je	.L450
	.loc 2 81 9 is_stmt 1 view .LVU1663
.LVL526:
.LBB3310:
.LBI3310:
	.loc 2 71 5 view .LVU1664
.LBB3311:
	.loc 2 72 5 view .LVU1665
	cmpl	80(%rsp), %esi
	jge	.L811
	.loc 2 75 5 view .LVU1666
	movl	80(%rsp), %r8d
	movl	%r13d, %edx
	call	_Z5get_yP4treeii.part.1
.LVL527:
	.loc 2 75 5 is_stmt 0 view .LVU1667
	movl	%eax, %r12d
.L452:
.LVL528:
	.loc 2 75 5 view .LVU1668
.LBE3311:
.LBE3310:
.LBB3315:
.LBI3315:
	.loc 2 17 41 is_stmt 1 view .LVU1669
.LBB3316:
	.loc 2 18 9 view .LVU1670
	testl	%r12d, %r12d
	jle	.L450
	.loc 2 18 28 view .LVU1671
.LVL529:
	.loc 2 18 28 is_stmt 0 view .LVU1672
.LBE3316:
.LBE3315:
	.loc 2 82 5 is_stmt 1 view .LVU1673
	movq	16(%r15), %rax
	cmpq	$0, 104(%rsp)
	movq	%rax, 96(%rsp)
	je	.L812
	.loc 2 83 9 view .LVU1674
.LVL530:
.LBB3317:
.LBI3317:
	.loc 2 71 5 view .LVU1675
.LBB3318:
	.loc 2 72 5 view .LVU1676
	.loc 2 75 5 view .LVU1677
	cmpl	80(%rsp), %esi
	jle	.L455
.LVL531:
.L454:
	.loc 2 75 5 is_stmt 0 view .LVU1678
	movl	76(%rsp), %r8d
	movl	80(%rsp), %edx
	movq	104(%rsp), %rcx
	call	_Z5get_yP4treeii.part.1
.LVL532:
	.loc 2 75 5 view .LVU1679
.LBE3318:
.LBE3317:
.LBE3308:
.LBE3307:
.LBE3306:
.LBE3305:
.LBE3303:
.LBE3302:
.LBE3403:
.LBE3519:
.LBE3544:
.LBE3564:
.LBE3584:
.LBE3614:
.LBE3659:
.LBE3691:
.LBE3724:
.LBE3767:
	.loc 2 18 9 is_stmt 1 view .LVU1680
	cmpl	%eax, %r12d
	cmovl	%eax, %r12d
.LVL533:
.L449:
.LBB3768:
.LBB3725:
.LBB3692:
.LBB3660:
.LBB3615:
.LBB3585:
.LBB3565:
.LBB3545:
.LBB3520:
.LBB3404:
.LBB3390:
.LBB3377:
.LBB3331:
.LBI3331:
	.loc 2 17 41 view .LVU1681
.LBB3332:
	.loc 2 18 9 view .LVU1682
	testl	%r12d, %r12d
	jle	.L447
	.loc 2 18 28 view .LVU1683
.LVL534:
	.loc 2 18 28 is_stmt 0 view .LVU1684
.LBE3332:
.LBE3331:
	.loc 2 82 5 is_stmt 1 view .LVU1685
	cmpq	$0, 96(%rsp)
	je	.L491
	.loc 2 83 9 view .LVU1686
.LVL535:
.LBB3335:
.LBI3335:
	.loc 2 71 5 view .LVU1687
.LBB3336:
	.loc 2 72 5 view .LVU1688
	.loc 2 75 5 view .LVU1689
	cmpl	76(%rsp), %esi
	jle	.L574
.LVL536:
.L457:
.LBB3337:
.LBB3338:
	.loc 2 78 5 view .LVU1690
	.loc 2 79 5 view .LVU1691
.LBB3339:
.LBI3339:
	.loc 2 15 36 view .LVU1692
	.loc 2 15 36 is_stmt 0 view .LVU1693
.LBE3339:
	.loc 2 80 5 is_stmt 1 view .LVU1694
	.loc 2 80 15 is_stmt 0 view .LVU1695
	movq	96(%rsp), %rax
	movq	8(%rax), %rcx
	movq	16(%rax), %rax
	.loc 2 80 5 view .LVU1696
	testq	%rcx, %rcx
	movq	%rax, 96(%rsp)
	je	.L459
	.loc 2 81 9 is_stmt 1 view .LVU1697
.LVL537:
.LBB3340:
.LBI3340:
	.loc 2 71 5 view .LVU1698
.LBB3341:
	.loc 2 72 5 view .LVU1699
	cmpl	52(%rsp), %esi
	jge	.L813
	.loc 2 75 5 view .LVU1700
	movl	52(%rsp), %r8d
	movl	76(%rsp), %edx
	call	_Z5get_yP4treeii.part.1
.LVL538:
	.loc 2 75 5 is_stmt 0 view .LVU1701
	movl	%eax, %r15d
.LVL539:
.L461:
	.loc 2 75 5 view .LVU1702
.LBE3341:
.LBE3340:
.LBB3345:
.LBI3345:
	.loc 2 17 41 is_stmt 1 view .LVU1703
.LBB3346:
	.loc 2 18 9 view .LVU1704
	testl	%r15d, %r15d
	jle	.L459
	.loc 2 18 28 view .LVU1705
.LVL540:
	.loc 2 18 28 is_stmt 0 view .LVU1706
.LBE3346:
.LBE3345:
	.loc 2 82 5 is_stmt 1 view .LVU1707
	cmpq	$0, 96(%rsp)
	je	.L462
	.loc 2 83 9 view .LVU1708
.LVL541:
.LBB3347:
.LBI3347:
	.loc 2 71 5 view .LVU1709
.LBB3348:
	.loc 2 72 5 view .LVU1710
	.loc 2 75 5 view .LVU1711
	cmpl	52(%rsp), %esi
	jle	.L462
	movl	44(%rsp), %r8d
	movl	52(%rsp), %edx
	movq	96(%rsp), %rcx
	call	_Z5get_yP4treeii.part.1
.LVL542:
	.loc 2 75 5 is_stmt 0 view .LVU1712
.LBE3348:
.LBE3347:
.LBE3338:
.LBE3337:
.LBE3336:
.LBE3335:
.LBE3377:
.LBE3390:
.LBE3404:
.LBE3520:
.LBE3545:
.LBE3565:
.LBE3585:
.LBE3615:
.LBE3660:
.LBE3692:
.LBE3725:
.LBE3768:
	.loc 2 18 9 is_stmt 1 view .LVU1713
	cmpl	%eax, %r15d
	cmovl	%eax, %r15d
.LVL543:
.LBB3769:
.LBB3726:
.LBB3693:
.LBB3661:
.LBB3616:
.LBB3586:
.LBB3566:
.LBB3546:
.LBB3521:
.LBB3405:
.LBB3391:
.LBB3378:
.LBB3361:
.LBI3361:
	.loc 2 17 41 view .LVU1714
.LBB3362:
	.loc 2 18 9 view .LVU1715
	cmpl	%r15d, %r12d
	jge	.L446
	movl	%r15d, %r12d
	jmp	.L541
.LVL544:
	.p2align 4,,10
.L326:
	.loc 2 18 9 is_stmt 0 view .LVU1716
.LBE3362:
.LBE3361:
.LBE3378:
.LBE3391:
.LBE3405:
.LBE3521:
.LBE3546:
.LBE3566:
.LBE3586:
.LBE3616:
.LBE3661:
.LBE3693:
.LBE3726:
.LBE3769:
.LBB3770:
.LBB2919:
.LBB2886:
.LBB2850:
.LBB2805:
.LBB2764:
.LBB2738:
.LBB2711:
.LBB2680:
.LBB2530:
	.loc 2 75 5 is_stmt 1 view .LVU1717
.LBB2512:
.LBB2493:
	.loc 2 78 5 view .LVU1718
	.loc 2 79 5 view .LVU1719
.LBB2468:
.LBI2468:
	.loc 2 15 36 view .LVU1720
	.loc 2 15 36 is_stmt 0 view .LVU1721
.LBE2468:
	.loc 2 80 5 is_stmt 1 view .LVU1722
	.loc 2 80 15 is_stmt 0 view .LVU1723
	movq	8(%r15), %rax
	.loc 2 80 5 view .LVU1724
	testq	%rax, %rax
	je	.L814
	.loc 2 81 9 is_stmt 1 view .LVU1725
.LVL545:
.LBB2469:
.LBI2395:
	.loc 2 71 5 view .LVU1726
.LBB2429:
	.loc 2 72 5 view .LVU1727
	cmpl	56(%rsp), %esi
	jge	.L815
	.loc 2 75 5 view .LVU1728
.LVL546:
.LBB2421:
.LBB2415:
	.loc 2 78 5 view .LVU1729
	.loc 2 79 5 view .LVU1730
.LBB2399:
.LBI2399:
	.loc 2 15 36 view .LVU1731
	.loc 2 15 36 is_stmt 0 view .LVU1732
.LBE2399:
	.loc 2 80 5 is_stmt 1 view .LVU1733
	.loc 2 80 15 is_stmt 0 view .LVU1734
	movq	8(%rax), %rcx
	movq	16(%rax), %rax
	.loc 2 80 5 view .LVU1735
	testq	%rcx, %rcx
	movq	%rax, 104(%rsp)
	je	.L331
	.loc 2 81 9 is_stmt 1 view .LVU1736
.LVL547:
.LBB2400:
.LBI2400:
	.loc 2 71 5 view .LVU1737
.LBB2401:
	.loc 2 72 5 view .LVU1738
	cmpl	60(%rsp), %esi
	jge	.L816
	.loc 2 75 5 view .LVU1739
	movl	60(%rsp), %r8d
	xorl	%edx, %edx
	call	_Z5get_yP4treeii.part.1
.LVL548:
	.loc 2 75 5 is_stmt 0 view .LVU1740
	movl	%eax, %edi
.L333:
.LVL549:
	.loc 2 75 5 view .LVU1741
.LBE2401:
.LBE2400:
.LBB2405:
.LBI2405:
	.loc 2 17 41 is_stmt 1 view .LVU1742
.LBB2406:
	.loc 2 18 9 view .LVU1743
	testl	%edi, %edi
	jle	.L331
	.loc 2 18 28 view .LVU1744
.LVL550:
	.loc 2 18 28 is_stmt 0 view .LVU1745
.LBE2406:
.LBE2405:
	.loc 2 82 5 is_stmt 1 view .LVU1746
	movq	16(%r15), %rax
	cmpq	$0, 104(%rsp)
	movq	%rax, 96(%rsp)
	je	.L817
	.loc 2 83 9 view .LVU1747
.LVL551:
.LBB2407:
.LBI2407:
	.loc 2 71 5 view .LVU1748
.LBB2408:
	.loc 2 72 5 view .LVU1749
	.loc 2 75 5 view .LVU1750
	cmpl	60(%rsp), %esi
	jle	.L336
.LVL552:
.L335:
	.loc 2 75 5 is_stmt 0 view .LVU1751
	movl	56(%rsp), %r8d
	movl	60(%rsp), %edx
	movq	104(%rsp), %rcx
	call	_Z5get_yP4treeii.part.1
.LVL553:
	.loc 2 75 5 view .LVU1752
.LBE2408:
.LBE2407:
.LBE2415:
.LBE2421:
.LBE2429:
.LBE2469:
.LBE2493:
.LBE2512:
.LBE2530:
.LBE2680:
.LBE2711:
.LBE2738:
.LBE2764:
.LBE2805:
.LBE2850:
.LBE2886:
.LBE2919:
.LBE3770:
	.loc 2 18 9 is_stmt 1 view .LVU1753
	cmpl	%eax, %edi
	cmovl	%eax, %edi
.LVL554:
.L330:
.LBB3771:
.LBB2920:
.LBB2887:
.LBB2851:
.LBB2806:
.LBB2765:
.LBB2739:
.LBB2712:
.LBB2681:
.LBB2531:
.LBB2513:
.LBB2494:
.LBB2470:
.LBI2470:
	.loc 2 17 41 view .LVU1754
.LBB2471:
	.loc 2 18 9 view .LVU1755
	testl	%edi, %edi
	jle	.L328
	.loc 2 18 28 view .LVU1756
.LVL555:
	.loc 2 18 28 is_stmt 0 view .LVU1757
.LBE2471:
.LBE2470:
	.loc 2 82 5 is_stmt 1 view .LVU1758
	cmpq	$0, 96(%rsp)
	je	.L534
	.loc 2 83 9 view .LVU1759
.LVL556:
.LBB2474:
.LBI2434:
	.loc 2 71 5 view .LVU1760
.LBB2460:
	.loc 2 72 5 view .LVU1761
	.loc 2 75 5 view .LVU1762
	cmpl	56(%rsp), %esi
	jle	.L559
.LVL557:
.L338:
.LBB2456:
.LBB2452:
	.loc 2 78 5 view .LVU1763
	.loc 2 79 5 view .LVU1764
.LBB2438:
.LBI2438:
	.loc 2 15 36 view .LVU1765
	.loc 2 15 36 is_stmt 0 view .LVU1766
.LBE2438:
	.loc 2 80 5 is_stmt 1 view .LVU1767
	.loc 2 80 15 is_stmt 0 view .LVU1768
	movq	96(%rsp), %rax
	movq	8(%rax), %rcx
	movq	16(%rax), %rax
	.loc 2 80 5 view .LVU1769
	testq	%rcx, %rcx
	movq	%rax, 96(%rsp)
	je	.L340
	.loc 2 81 9 is_stmt 1 view .LVU1770
.LVL558:
.LBB2439:
.LBI2439:
	.loc 2 71 5 view .LVU1771
.LBB2440:
	.loc 2 72 5 view .LVU1772
	cmpl	48(%rsp), %esi
	jge	.L818
	.loc 2 75 5 view .LVU1773
	movl	48(%rsp), %r8d
	movl	56(%rsp), %edx
	call	_Z5get_yP4treeii.part.1
.LVL559:
	.loc 2 75 5 is_stmt 0 view .LVU1774
	movl	%eax, %r15d
.LVL560:
.L342:
	.loc 2 75 5 view .LVU1775
.LBE2440:
.LBE2439:
.LBB2444:
.LBI2444:
	.loc 2 17 41 is_stmt 1 view .LVU1776
.LBB2445:
	.loc 2 18 9 view .LVU1777
	testl	%r15d, %r15d
	jle	.L340
	.loc 2 18 28 view .LVU1778
.LVL561:
	.loc 2 18 28 is_stmt 0 view .LVU1779
.LBE2445:
.LBE2444:
	.loc 2 82 5 is_stmt 1 view .LVU1780
	cmpq	$0, 96(%rsp)
	je	.L343
	.loc 2 83 9 view .LVU1781
.LVL562:
.LBB2446:
.LBI2446:
	.loc 2 71 5 view .LVU1782
.LBB2447:
	.loc 2 72 5 view .LVU1783
	.loc 2 75 5 view .LVU1784
	cmpl	48(%rsp), %esi
	jle	.L343
	movl	40(%rsp), %r8d
	movl	48(%rsp), %edx
	movq	96(%rsp), %rcx
	call	_Z5get_yP4treeii.part.1
.LVL563:
	.loc 2 75 5 is_stmt 0 view .LVU1785
.LBE2447:
.LBE2446:
.LBE2452:
.LBE2456:
.LBE2460:
.LBE2474:
.LBE2494:
.LBE2513:
.LBE2531:
.LBE2681:
.LBE2712:
.LBE2739:
.LBE2765:
.LBE2806:
.LBE2851:
.LBE2887:
.LBE2920:
.LBE3771:
	.loc 2 18 9 is_stmt 1 view .LVU1786
	cmpl	%eax, %r15d
	cmovl	%eax, %r15d
.LVL564:
.LBB3772:
.LBB2921:
.LBB2888:
.LBB2852:
.LBB2807:
.LBB2766:
.LBB2740:
.LBB2713:
.LBB2682:
.LBB2532:
.LBB2514:
.LBB2495:
.LBB2475:
.LBI2475:
	.loc 2 17 41 view .LVU1787
.LBB2476:
	.loc 2 18 9 view .LVU1788
	cmpl	%edi, %r15d
	jle	.L327
	movl	%r15d, %edi
	jmp	.L345
.LVL565:
.L380:
	.loc 2 18 9 is_stmt 0 view .LVU1789
.LBE2476:
.LBE2475:
.LBE2495:
.LBE2514:
.LBE2532:
.LBE2682:
.LBE2713:
.LBE2740:
.LBE2766:
.LBE2807:
.LBB2808:
.LBB2373:
.LBB2350:
.LBB2327:
.LBB2298:
.LBB2266:
.LBB2248:
.LBB2229:
.LBB2211:
	.loc 2 17 41 is_stmt 1 view .LVU1790
.LBB2209:
	.loc 2 18 9 view .LVU1791
	cmpl	%r12d, %r15d
	jle	.L563
	movl	%r15d, %r12d
.LVL566:
.L518:
	.loc 2 18 9 is_stmt 0 view .LVU1792
.LBE2209:
.LBE2211:
.LBE2229:
.LBE2248:
.LBE2266:
.LBE2298:
.LBB2299:
.LBB2288:
	.loc 2 18 28 is_stmt 1 view .LVU1793
	.loc 2 18 28 is_stmt 0 view .LVU1794
.LBE2288:
.LBE2299:
	.loc 2 82 5 is_stmt 1 view .LVU1795
	cmpq	$0, 16(%rbp)
	je	.L382
	movl	%r12d, %r15d
.LVL567:
.L383:
	.loc 2 82 5 is_stmt 0 view .LVU1796
	movl	%r15d, %r12d
	jmp	.L382
.LVL568:
.L462:
	.loc 2 82 5 view .LVU1797
.LBE2327:
.LBE2350:
.LBE2373:
.LBE2808:
.LBE2852:
.LBE2888:
.LBE2921:
.LBE3772:
.LBB3773:
.LBB3727:
.LBB3694:
.LBB3662:
.LBB3617:
.LBB3587:
.LBB3567:
.LBB3547:
.LBB3522:
.LBB3406:
.LBB3392:
.LBB3379:
.LBB3365:
	.loc 2 17 41 is_stmt 1 view .LVU1798
.LBB3363:
	.loc 2 18 9 view .LVU1799
	cmpl	%r15d, %r12d
	jge	.L574
	movl	%r15d, %r12d
.LVL569:
.L491:
	.loc 2 18 9 is_stmt 0 view .LVU1800
.LBE3363:
.LBE3365:
.LBE3379:
.LBE3392:
.LBE3406:
.LBE3522:
.LBB3523:
.LBB3419:
	.loc 2 18 28 is_stmt 1 view .LVU1801
	.loc 2 18 28 is_stmt 0 view .LVU1802
.LBE3419:
.LBE3523:
	.loc 2 82 5 is_stmt 1 view .LVU1803
	cmpq	$0, 16(%rbp)
	je	.L464
	movl	%r12d, %r15d
.LVL570:
.L465:
	.loc 2 82 5 is_stmt 0 view .LVU1804
	movl	%r15d, %r12d
	jmp	.L464
.LVL571:
.L348:
	.loc 2 82 5 view .LVU1805
.LBE3547:
.LBE3567:
.LBE3587:
.LBE3617:
.LBE3662:
.LBE3694:
.LBE3727:
.LBE3773:
.LBB3774:
.LBB2922:
.LBB2889:
.LBB2853:
.LBB2809:
.LBB2767:
.LBB2741:
.LBB2714:
.LBB2683:
.LBB2657:
.LBB2647:
.LBB2638:
	.loc 2 82 5 is_stmt 1 view .LVU1806
	.loc 2 82 15 is_stmt 0 view .LVU1807
	movq	16(%r12), %rax
	.loc 2 82 5 view .LVU1808
	testq	%rax, %rax
	je	.L324
	.loc 2 83 9 is_stmt 1 view .LVU1809
.LVL572:
.LBB2628:
	.loc 2 71 5 view .LVU1810
.LBB2617:
	.loc 2 72 5 view .LVU1811
	.loc 2 75 5 view .LVU1812
	xorl	%r15d, %r15d
	cmpl	64(%rsp), %esi
	jg	.L524
	jmp	.L324
.LVL573:
	.p2align 4,,10
.L466:
	.loc 2 75 5 is_stmt 0 view .LVU1813
.LBE2617:
.LBE2628:
.LBE2638:
.LBE2647:
.LBE2657:
.LBE2683:
.LBE2714:
.LBE2741:
.LBE2767:
.LBE2809:
.LBE2853:
.LBE2889:
.LBE2922:
.LBE3774:
.LBB3775:
.LBB3728:
.LBB3695:
.LBB3663:
.LBB3618:
.LBB3588:
.LBB3568:
.LBB3548:
.LBB3524:
.LBB3508:
.LBB3499:
.LBB3491:
	.loc 2 82 5 is_stmt 1 view .LVU1814
	.loc 2 82 15 is_stmt 0 view .LVU1815
	movq	16(%rbp), %rax
	.loc 2 82 5 view .LVU1816
	testq	%rax, %rax
	je	.L465
	.loc 2 83 9 is_stmt 1 view .LVU1817
.LVL574:
.LBB3483:
	.loc 2 71 5 view .LVU1818
.LBB3477:
	.loc 2 72 5 view .LVU1819
	.loc 2 75 5 view .LVU1820
	cmpl	84(%rsp), %esi
	movl	%r15d, %r12d
	jle	.L464
	movl	$0, 96(%rsp)
	jmp	.L539
.LVL575:
.L799:
	.loc 2 75 5 is_stmt 0 view .LVU1821
	movq	16(%r15), %rax
	movq	%rax, 96(%rsp)
.L365:
	.loc 2 75 5 view .LVU1822
.LBE3477:
.LBE3483:
.LBE3491:
.LBE3499:
.LBE3508:
.LBE3524:
.LBE3548:
.LBE3568:
.LBE3588:
.LBE3618:
.LBE3663:
.LBE3695:
.LBE3728:
.LBE3775:
.LBB3776:
.LBB2923:
.LBB2890:
.LBB2854:
.LBB2810:
.LBB2374:
.LBB2351:
.LBB2328:
.LBB2300:
.LBB2267:
.LBB2249:
.LBB2230:
	.loc 2 82 5 is_stmt 1 view .LVU1823
	cmpq	$0, 96(%rsp)
	je	.L321
	.loc 2 83 9 view .LVU1824
.LVL576:
.LBB2212:
	.loc 2 71 5 view .LVU1825
.LBB2192:
	.loc 2 72 5 view .LVU1826
	.loc 2 75 5 view .LVU1827
	xorl	%r12d, %r12d
	cmpl	76(%rsp), %esi
	jg	.L375
	jmp	.L321
.LVL577:
	.p2align 4,,10
.L430:
	.loc 2 75 5 is_stmt 0 view .LVU1828
.LBE2192:
.LBE2212:
.LBE2230:
.LBE2249:
.LBE2267:
.LBE2300:
.LBE2328:
.LBE2351:
.LBE2374:
.LBE2810:
.LBE2854:
.LBE2890:
.LBE2923:
.LBE3776:
.LBB3777:
.LBB3729:
.LBB3696:
.LBB3664:
.LBB3619:
.LBB3273:
.LBB3247:
.LBB3220:
.LBB3190:
.LBB3176:
.LBB3168:
.LBB3161:
	.loc 2 82 5 is_stmt 1 view .LVU1829
	.loc 2 82 15 is_stmt 0 view .LVU1830
	movq	16(%r12), %rax
	.loc 2 82 5 view .LVU1831
	testq	%rax, %rax
	je	.L406
	.loc 2 83 9 is_stmt 1 view .LVU1832
.LVL578:
.LBB3154:
	.loc 2 71 5 view .LVU1833
.LBB3151:
	.loc 2 72 5 view .LVU1834
	.loc 2 75 5 view .LVU1835
	xorl	%r15d, %r15d
	cmpl	64(%rsp), %esi
	jg	.L497
	jmp	.L406
.LVL579:
.L809:
	.loc 2 75 5 is_stmt 0 view .LVU1836
	movq	16(%r15), %rax
	movq	%rax, 96(%rsp)
.L447:
	.loc 2 75 5 view .LVU1837
.LBE3151:
.LBE3154:
.LBE3161:
.LBE3168:
.LBE3176:
.LBE3190:
.LBE3220:
.LBE3247:
.LBE3273:
.LBE3619:
.LBB3620:
.LBB3589:
.LBB3569:
.LBB3549:
.LBB3525:
.LBB3407:
.LBB3393:
.LBB3380:
	.loc 2 82 5 is_stmt 1 view .LVU1838
	cmpq	$0, 96(%rsp)
	je	.L403
	.loc 2 83 9 view .LVU1839
.LVL580:
.LBB3366:
	.loc 2 71 5 view .LVU1840
.LBB3356:
	.loc 2 72 5 view .LVU1841
	.loc 2 75 5 view .LVU1842
	xorl	%r12d, %r12d
	cmpl	76(%rsp), %esi
	jg	.L457
	jmp	.L403
.LVL581:
.L804:
	.loc 2 75 5 is_stmt 0 view .LVU1843
	movq	16(%r15), %rax
	movq	%rax, 96(%rsp)
.L410:
	.loc 2 75 5 view .LVU1844
.LBE3356:
.LBE3366:
.LBE3380:
.LBE3393:
.LBE3407:
.LBE3525:
.LBE3549:
.LBE3569:
.LBE3589:
.LBE3620:
.LBB3621:
.LBB3274:
.LBB3248:
.LBB3221:
.LBB3191:
.LBB3076:
.LBB3060:
.LBB3045:
	.loc 2 82 5 is_stmt 1 view .LVU1845
	cmpq	$0, 96(%rsp)
	je	.L779
	.loc 2 83 9 view .LVU1846
.LVL582:
.LBB3029:
	.loc 2 71 5 view .LVU1847
.LBB3019:
	.loc 2 72 5 view .LVU1848
	.loc 2 75 5 view .LVU1849
	xorl	%edi, %edi
	cmpl	56(%rsp), %esi
	jg	.L420
	jmp	.L403
.LVL583:
	.p2align 4,,10
.L384:
	.loc 2 75 5 is_stmt 0 view .LVU1850
.LBE3019:
.LBE3029:
.LBE3045:
.LBE3060:
.LBE3076:
.LBE3191:
.LBE3221:
.LBE3248:
.LBE3274:
.LBE3621:
.LBE3664:
.LBE3696:
.LBE3729:
.LBE3777:
.LBB3778:
.LBB2924:
.LBB2891:
.LBB2855:
.LBB2811:
.LBB2375:
.LBB2352:
.LBB2329:
.LBB2301:
.LBB2115:
.LBB2101:
.LBB2089:
	.loc 2 82 5 is_stmt 1 view .LVU1851
	.loc 2 82 15 is_stmt 0 view .LVU1852
	movq	16(%rbp), %rax
	.loc 2 82 5 view .LVU1853
	testq	%rax, %rax
	je	.L383
	.loc 2 83 9 is_stmt 1 view .LVU1854
.LVL584:
.LBB2077:
	.loc 2 71 5 view .LVU1855
.LBB2023:
	.loc 2 72 5 view .LVU1856
	.loc 2 75 5 view .LVU1857
	cmpl	84(%rsp), %esi
	movl	%r15d, %r12d
	jle	.L382
	movl	$0, 96(%rsp)
	jmp	.L546
.LVL585:
.L814:
	.loc 2 75 5 is_stmt 0 view .LVU1858
	movq	16(%r15), %rax
	movq	%rax, 96(%rsp)
.L328:
	.loc 2 75 5 view .LVU1859
.LBE2023:
.LBE2077:
.LBE2089:
.LBE2101:
.LBE2115:
.LBE2301:
.LBE2329:
.LBE2352:
.LBE2375:
.LBE2811:
.LBB2812:
.LBB2768:
.LBB2742:
.LBB2715:
.LBB2684:
.LBB2533:
.LBB2515:
.LBB2496:
	.loc 2 82 5 is_stmt 1 view .LVU1860
	cmpq	$0, 96(%rsp)
	je	.L778
	.loc 2 83 9 view .LVU1861
.LVL586:
.LBB2479:
	.loc 2 71 5 view .LVU1862
.LBB2461:
	.loc 2 72 5 view .LVU1863
	.loc 2 75 5 view .LVU1864
	xorl	%edi, %edi
	cmpl	56(%rsp), %esi
	jg	.L338
	jmp	.L321
.LVL587:
.L805:
	.loc 2 75 5 is_stmt 0 view .LVU1865
.LBE2461:
.LBE2479:
.LBE2496:
.LBE2515:
.LBE2533:
.LBE2684:
.LBE2715:
.LBE2742:
.LBE2768:
.LBE2812:
.LBE2855:
.LBE2891:
.LBE2924:
.LBE3778:
.LBB3779:
.LBB3730:
.LBB3697:
.LBB3665:
.LBB3622:
.LBB3275:
.LBB3249:
.LBB3222:
.LBB3192:
.LBB3077:
.LBB3061:
.LBB3046:
.LBB3030:
.LBB2989:
	.loc 2 73 9 is_stmt 1 view .LVU1866
.LBB2984:
.LBI2984:
	.loc 2 21 36 view .LVU1867
.LBB2985:
	.loc 2 21 57 view .LVU1868
	.loc 2 21 64 is_stmt 0 view .LVU1869
	movl	(%rax), %edi
.LVL588:
	.loc 2 21 64 view .LVU1870
	movq	16(%r15), %rax
	movq	%rax, 96(%rsp)
	jmp	.L412
.LVL589:
.L800:
	.loc 2 21 64 view .LVU1871
.LBE2985:
.LBE2984:
.LBE2989:
.LBE3030:
.LBE3046:
.LBE3061:
.LBE3077:
.LBE3192:
.LBE3222:
.LBE3249:
.LBE3275:
.LBE3622:
.LBE3665:
.LBE3697:
.LBE3730:
.LBE3779:
.LBB3780:
.LBB2925:
.LBB2892:
.LBB2856:
.LBB2813:
.LBB2376:
.LBB2353:
.LBB2330:
.LBB2302:
.LBB2268:
.LBB2250:
.LBB2231:
.LBB2213:
.LBB2158:
	.loc 2 73 9 is_stmt 1 view .LVU1872
.LBB2151:
.LBI2151:
	.loc 2 21 36 view .LVU1873
.LBB2152:
	.loc 2 21 57 view .LVU1874
	.loc 2 21 64 is_stmt 0 view .LVU1875
	movl	(%rax), %r12d
.LVL590:
	.loc 2 21 64 view .LVU1876
	movq	16(%r15), %rax
	movq	%rax, 96(%rsp)
	jmp	.L367
.LVL591:
.L784:
	.loc 2 21 64 view .LVU1877
.LBE2152:
.LBE2151:
.LBE2158:
.LBE2213:
.LBE2231:
.LBE2250:
.LBE2268:
.LBE2302:
.LBE2330:
.LBE2353:
.LBE2376:
.LBE2813:
.LBB2814:
.LBB2769:
.LBB2743:
.LBB2716:
.LBB2685:
.LBB2658:
.LBB2648:
.LBB2639:
.LBB2629:
.LBB2581:
	.loc 2 73 9 is_stmt 1 view .LVU1878
.LBB2574:
.LBI2574:
	.loc 2 21 36 view .LVU1879
.LBB2575:
	.loc 2 21 57 view .LVU1880
	.loc 2 21 64 is_stmt 0 view .LVU1881
	movl	(%rax), %r15d
.LVL592:
	.loc 2 21 64 view .LVU1882
	jmp	.L350
.LVL593:
.L794:
	.loc 2 21 64 view .LVU1883
.LBE2575:
.LBE2574:
.LBE2581:
.LBE2629:
.LBE2639:
.LBE2648:
.LBE2658:
.LBE2685:
.LBE2716:
.LBE2743:
.LBE2769:
.LBE2814:
.LBE2856:
.LBE2892:
.LBE2925:
.LBE3780:
.LBB3781:
.LBB3731:
.LBB3698:
.LBB3666:
.LBB3623:
.LBB3590:
.LBB3570:
.LBB3550:
.LBB3526:
.LBB3509:
.LBB3500:
.LBB3492:
.LBB3484:
.LBB3449:
	.loc 2 73 9 is_stmt 1 view .LVU1884
.LBB3445:
.LBI3445:
	.loc 2 21 36 view .LVU1885
.LBB3446:
	.loc 2 21 57 view .LVU1886
	.loc 2 21 64 is_stmt 0 view .LVU1887
	movl	(%rax), %r12d
.LVL594:
	.loc 2 21 64 view .LVU1888
	jmp	.L468
.LVL595:
.L791:
	.loc 2 21 64 view .LVU1889
.LBE3446:
.LBE3445:
.LBE3449:
.LBE3484:
.LBE3492:
.LBE3500:
.LBE3509:
.LBE3526:
.LBE3550:
.LBE3570:
.LBE3590:
.LBE3623:
.LBB3624:
.LBB3276:
.LBB3250:
.LBB3223:
.LBB3193:
.LBB3177:
.LBB3169:
.LBB3162:
.LBB3155:
.LBB3123:
	.loc 2 73 9 is_stmt 1 view .LVU1890
.LBB3119:
.LBI3119:
	.loc 2 21 36 view .LVU1891
.LBB3120:
	.loc 2 21 57 view .LVU1892
	.loc 2 21 64 is_stmt 0 view .LVU1893
	movl	(%rax), %r15d
.LVL596:
	.loc 2 21 64 view .LVU1894
	jmp	.L432
.LVL597:
.L810:
	.loc 2 21 64 view .LVU1895
.LBE3120:
.LBE3119:
.LBE3123:
.LBE3155:
.LBE3162:
.LBE3169:
.LBE3177:
.LBE3193:
.LBE3223:
.LBE3250:
.LBE3276:
.LBE3624:
.LBB3625:
.LBB3591:
.LBB3571:
.LBB3551:
.LBB3527:
.LBB3408:
.LBB3394:
.LBB3381:
.LBB3367:
.LBB3328:
	.loc 2 73 9 is_stmt 1 view .LVU1896
.LBB3324:
.LBI3324:
	.loc 2 21 36 view .LVU1897
.LBB3325:
	.loc 2 21 57 view .LVU1898
	.loc 2 21 64 is_stmt 0 view .LVU1899
	movl	(%rax), %r12d
.LVL598:
	.loc 2 21 64 view .LVU1900
	movq	16(%r15), %rax
	movq	%rax, 96(%rsp)
	jmp	.L449
.LVL599:
.L815:
	.loc 2 21 64 view .LVU1901
.LBE3325:
.LBE3324:
.LBE3328:
.LBE3367:
.LBE3381:
.LBE3394:
.LBE3408:
.LBE3527:
.LBE3551:
.LBE3571:
.LBE3591:
.LBE3625:
.LBE3666:
.LBE3698:
.LBE3731:
.LBE3781:
.LBB3782:
.LBB2926:
.LBB2893:
.LBB2857:
.LBB2815:
.LBB2770:
.LBB2744:
.LBB2717:
.LBB2686:
.LBB2534:
.LBB2516:
.LBB2497:
.LBB2480:
.LBB2430:
	.loc 2 73 9 is_stmt 1 view .LVU1902
.LBB2422:
.LBI2422:
	.loc 2 21 36 view .LVU1903
.LBB2423:
	.loc 2 21 57 view .LVU1904
	.loc 2 21 64 is_stmt 0 view .LVU1905
	movl	(%rax), %edi
.LVL600:
	.loc 2 21 64 view .LVU1906
	movq	16(%r15), %rax
	movq	%rax, 96(%rsp)
	jmp	.L330
.LVL601:
.L787:
	.loc 2 21 64 view .LVU1907
.LBE2423:
.LBE2422:
.LBE2430:
.LBE2480:
.LBE2497:
.LBE2516:
.LBE2534:
.LBE2686:
.LBE2717:
.LBE2744:
.LBE2770:
.LBE2815:
.LBB2816:
.LBB2377:
.LBB2354:
.LBB2331:
.LBB2303:
.LBB2116:
.LBB2102:
.LBB2090:
.LBB2078:
.LBB2062:
	.loc 2 73 9 is_stmt 1 view .LVU1908
.LBB2054:
.LBI2054:
	.loc 2 21 36 view .LVU1909
.LBB2055:
	.loc 2 21 57 view .LVU1910
	.loc 2 21 64 is_stmt 0 view .LVU1911
	movl	(%rax), %r12d
.LVL602:
	.loc 2 21 64 view .LVU1912
	jmp	.L386
.LVL603:
.L395:
	.loc 2 21 64 view .LVU1913
.LBE2055:
.LBE2054:
.LBE2062:
.LBE2078:
.LBB2079:
.LBB2024:
	.loc 2 75 5 view .LVU1914
	movl	96(%rsp), %r12d
	jmp	.L394
.LVL604:
.L477:
	.loc 2 75 5 view .LVU1915
.LBE2024:
.LBE2079:
.LBE2090:
.LBE2102:
.LBE2116:
.LBE2303:
.LBE2331:
.LBE2354:
.LBE2377:
.LBE2816:
.LBE2857:
.LBE2893:
.LBE2926:
.LBE3782:
.LBB3783:
.LBB3732:
.LBB3699:
.LBB3667:
.LBB3626:
.LBB3592:
.LBB3572:
.LBB3552:
.LBB3528:
.LBB3510:
.LBB3501:
.LBB3493:
.LBB3485:
.LBB3478:
	movl	96(%rsp), %r12d
	jmp	.L476
.LVL605:
.L469:
	.loc 2 75 5 view .LVU1916
.LBE3478:
.LBE3485:
.LBB3486:
.LBB3450:
.LBB3447:
.LBB3443:
	.loc 2 82 5 is_stmt 1 view .LVU1917
	testq	%r12, %r12
	je	.L473
	.loc 2 83 9 view .LVU1918
.LVL606:
.LBB3441:
	.loc 2 71 5 view .LVU1919
.LBB3440:
	.loc 2 72 5 view .LVU1920
	.loc 2 75 5 view .LVU1921
	cmpl	88(%rsp), %esi
	jle	.L473
	movl	$0, 96(%rsp)
	jmp	.L474
.LVL607:
.L368:
	.loc 2 75 5 is_stmt 0 view .LVU1922
.LBE3440:
.LBE3441:
.LBE3443:
.LBE3447:
.LBE3450:
.LBE3486:
.LBE3493:
.LBE3501:
.LBE3510:
.LBE3528:
.LBE3552:
.LBE3572:
.LBE3592:
.LBE3626:
.LBE3667:
.LBE3699:
.LBE3732:
.LBE3783:
.LBB3784:
.LBB2927:
.LBB2894:
.LBB2858:
.LBB2817:
.LBB2378:
.LBB2355:
.LBB2332:
.LBB2304:
.LBB2269:
.LBB2251:
.LBB2232:
.LBB2214:
.LBB2159:
.LBB2153:
.LBB2146:
	.loc 2 82 5 is_stmt 1 view .LVU1923
	cmpq	$0, 104(%rsp)
	je	.L321
	.loc 2 83 9 view .LVU1924
.LVL608:
.LBB2141:
	.loc 2 71 5 view .LVU1925
.LBB2140:
	.loc 2 72 5 view .LVU1926
	.loc 2 75 5 view .LVU1927
	cmpl	80(%rsp), %esi
	jle	.L321
	movq	16(%r15), %rax
	xorl	%r12d, %r12d
	movq	%rax, 96(%rsp)
	jmp	.L372
.LVL609:
.L396:
	.loc 2 75 5 is_stmt 0 view .LVU1928
.LBE2140:
.LBE2141:
.LBE2146:
.LBE2153:
.LBE2159:
.LBE2214:
.LBE2232:
.LBE2251:
.LBE2269:
.LBE2304:
.LBB2305:
.LBB2117:
.LBB2103:
.LBB2091:
.LBB2080:
.LBB2025:
.LBB2018:
.LBB2013:
	.loc 2 82 5 is_stmt 1 view .LVU1929
	testq	%rbp, %rbp
	je	.L395
	.loc 2 83 9 view .LVU1930
.LVL610:
.LBB2008:
	.loc 2 71 5 view .LVU1931
.LBB2005:
	.loc 2 72 5 view .LVU1932
	.loc 2 75 5 view .LVU1933
	cmpl	92(%rsp), %esi
	movl	96(%rsp), %r12d
	jle	.L394
	movl	$0, 104(%rsp)
	jmp	.L545
.LVL611:
.L377:
	.loc 2 75 5 is_stmt 0 view .LVU1934
.LBE2005:
.LBE2008:
.LBE2013:
.LBE2018:
.LBE2025:
.LBE2080:
.LBE2091:
.LBE2103:
.LBE2117:
.LBE2305:
.LBB2306:
.LBB2270:
.LBB2252:
.LBB2233:
.LBB2215:
.LBB2193:
.LBB2187:
.LBB2182:
	.loc 2 82 5 is_stmt 1 view .LVU1935
	cmpq	$0, 96(%rsp)
	je	.L364
	.loc 2 83 9 view .LVU1936
.LVL612:
.LBB2177:
	.loc 2 71 5 view .LVU1937
.LBB2176:
	.loc 2 72 5 view .LVU1938
	.loc 2 75 5 view .LVU1939
	cmpl	52(%rsp), %esi
	jle	.L364
	movq	96(%rsp), %rcx
	movl	44(%rsp), %r8d
	movl	52(%rsp), %edx
	call	_Z5get_yP4treeii.part.1
.LVL613:
	.loc 2 75 5 is_stmt 0 view .LVU1940
.LBE2176:
.LBE2177:
.LBE2182:
.LBE2187:
.LBE2193:
.LBE2215:
.LBE2233:
.LBE2252:
.LBE2270:
.LBE2306:
.LBE2332:
.LBE2355:
.LBE2378:
.LBE2817:
.LBE2858:
.LBE2894:
.LBE2927:
.LBE3784:
	.loc 2 18 9 is_stmt 1 view .LVU1941
	movl	$0, %ecx
	testl	%eax, %eax
	cmovs	%ecx, %eax
.LVL614:
.LBB3785:
.LBB2928:
.LBB2895:
.LBB2859:
.LBB2818:
.LBB2379:
.LBB2356:
.LBB2333:
.LBB2307:
.LBB2271:
.LBB2253:
.LBB2234:
.LBB2216:
	.loc 2 17 41 view .LVU1942
.LBB2210:
	.loc 2 18 9 view .LVU1943
	cmpl	%eax, %r12d
	jge	.L364
.LVL615:
.L376:
	.loc 2 18 9 is_stmt 0 view .LVU1944
.LBE2210:
.LBE2216:
.LBE2234:
.LBE2253:
.LBE2271:
.LBE2307:
.LBB2308:
	.loc 2 17 41 is_stmt 1 view .LVU1945
.LBB2289:
	.loc 2 18 9 view .LVU1946
.LBE2289:
.LBE2308:
.LBB2309:
.LBB2272:
.LBB2254:
.LBB2235:
.LBB2217:
.LBB2194:
	.loc 2 75 5 is_stmt 0 view .LVU1947
	movl	%eax, %r12d
	jmp	.L548
.LVL616:
.L439:
	.loc 2 75 5 view .LVU1948
.LBE2194:
.LBE2217:
.LBE2235:
.LBE2254:
.LBE2272:
.LBE2309:
.LBE2333:
.LBE2356:
.LBE2379:
.LBE2818:
.LBE2859:
.LBE2895:
.LBE2928:
.LBE3785:
.LBB3786:
.LBB3733:
.LBB3700:
.LBB3668:
.LBB3627:
.LBB3277:
.LBB3251:
.LBB3224:
.LBB3194:
.LBB3178:
.LBB3170:
.LBB3163:
.LBB3156:
.LBB3152:
.LBB3149:
.LBB3147:
	.loc 2 82 5 is_stmt 1 view .LVU1949
	testq	%r12, %r12
	je	.L438
	.loc 2 83 9 view .LVU1950
.LVL617:
.LBB3145:
	.loc 2 71 5 view .LVU1951
.LBB3142:
	.loc 2 72 5 view .LVU1952
	.loc 2 75 5 view .LVU1953
	cmpl	72(%rsp), %esi
	jle	.L438
	movl	$0, 96(%rsp)
	jmp	.L542
.LVL618:
.L478:
	.loc 2 75 5 is_stmt 0 view .LVU1954
.LBE3142:
.LBE3145:
.LBE3147:
.LBE3149:
.LBE3152:
.LBE3156:
.LBE3163:
.LBE3170:
.LBE3178:
.LBE3194:
.LBE3224:
.LBE3251:
.LBE3277:
.LBE3627:
.LBB3628:
.LBB3593:
.LBB3573:
.LBB3553:
.LBB3529:
.LBB3511:
.LBB3502:
.LBB3494:
.LBB3487:
.LBB3479:
.LBB3475:
.LBB3473:
	.loc 2 82 5 is_stmt 1 view .LVU1955
	testq	%rbp, %rbp
	je	.L477
	.loc 2 83 9 view .LVU1956
.LVL619:
.LBB3471:
	.loc 2 71 5 view .LVU1957
.LBB3468:
	.loc 2 72 5 view .LVU1958
	.loc 2 75 5 view .LVU1959
	cmpl	92(%rsp), %esi
	movl	96(%rsp), %r12d
	jle	.L476
	movl	$0, 104(%rsp)
	jmp	.L538
.LVL620:
.L459:
	.loc 2 75 5 is_stmt 0 view .LVU1960
.LBE3468:
.LBE3471:
.LBE3473:
.LBE3475:
.LBE3479:
.LBE3487:
.LBE3494:
.LBE3502:
.LBE3511:
.LBE3529:
.LBB3530:
.LBB3409:
.LBB3395:
.LBB3382:
.LBB3368:
.LBB3357:
.LBB3354:
.LBB3352:
	.loc 2 82 5 is_stmt 1 view .LVU1961
	cmpq	$0, 96(%rsp)
	je	.L446
	.loc 2 83 9 view .LVU1962
.LVL621:
.LBB3350:
	.loc 2 71 5 view .LVU1963
.LBB3349:
	.loc 2 72 5 view .LVU1964
	.loc 2 75 5 view .LVU1965
	cmpl	52(%rsp), %esi
	jle	.L446
	movq	96(%rsp), %rcx
	movl	44(%rsp), %r8d
	movl	52(%rsp), %edx
	call	_Z5get_yP4treeii.part.1
.LVL622:
	.loc 2 75 5 is_stmt 0 view .LVU1966
.LBE3349:
.LBE3350:
.LBE3352:
.LBE3354:
.LBE3357:
.LBE3368:
.LBE3382:
.LBE3395:
.LBE3409:
.LBE3530:
.LBE3553:
.LBE3573:
.LBE3593:
.LBE3628:
.LBE3668:
.LBE3700:
.LBE3733:
.LBE3786:
	.loc 2 18 9 is_stmt 1 view .LVU1967
	movl	$0, %ecx
	testl	%eax, %eax
	cmovs	%ecx, %eax
.LVL623:
.LBB3787:
.LBB3734:
.LBB3701:
.LBB3669:
.LBB3629:
.LBB3594:
.LBB3574:
.LBB3554:
.LBB3531:
.LBB3410:
.LBB3396:
.LBB3383:
.LBB3369:
	.loc 2 17 41 view .LVU1968
.LBB3364:
	.loc 2 18 9 view .LVU1969
	cmpl	%eax, %r12d
	jge	.L446
.LVL624:
.L458:
	.loc 2 18 9 is_stmt 0 view .LVU1970
.LBE3364:
.LBE3369:
.LBE3383:
.LBE3396:
.LBE3410:
.LBE3531:
.LBB3532:
	.loc 2 17 41 is_stmt 1 view .LVU1971
.LBB3420:
	.loc 2 18 9 view .LVU1972
.LBE3420:
.LBE3532:
.LBB3533:
.LBB3411:
.LBB3397:
.LBB3384:
.LBB3370:
.LBB3358:
	.loc 2 75 5 is_stmt 0 view .LVU1973
	movl	%eax, %r12d
	jmp	.L541
.LVL625:
.L433:
	.loc 2 75 5 view .LVU1974
.LBE3358:
.LBE3370:
.LBE3384:
.LBE3397:
.LBE3411:
.LBE3533:
.LBE3554:
.LBE3574:
.LBE3594:
.LBE3629:
.LBB3630:
.LBB3278:
.LBB3252:
.LBB3225:
.LBB3195:
.LBB3179:
.LBB3171:
.LBB3164:
.LBB3157:
.LBB3124:
.LBB3121:
.LBB3117:
	.loc 2 82 5 is_stmt 1 view .LVU1975
	cmpq	$0, 96(%rsp)
	je	.L406
	.loc 2 83 9 view .LVU1976
.LVL626:
.LBB3115:
	.loc 2 71 5 view .LVU1977
.LBB3114:
	.loc 2 72 5 view .LVU1978
	.loc 2 75 5 view .LVU1979
	xorl	%r15d, %r15d
	cmpl	68(%rsp), %esi
	jg	.L437
	jmp	.L406
.LVL627:
.L331:
	.loc 2 75 5 is_stmt 0 view .LVU1980
.LBE3114:
.LBE3115:
.LBE3117:
.LBE3121:
.LBE3124:
.LBE3157:
.LBE3164:
.LBE3171:
.LBE3179:
.LBE3195:
.LBE3225:
.LBE3252:
.LBE3278:
.LBE3630:
.LBE3669:
.LBE3701:
.LBE3734:
.LBE3787:
.LBB3788:
.LBB2929:
.LBB2896:
.LBB2860:
.LBB2819:
.LBB2771:
.LBB2745:
.LBB2718:
.LBB2687:
.LBB2535:
.LBB2517:
.LBB2498:
.LBB2481:
.LBB2431:
.LBB2424:
.LBB2416:
	.loc 2 82 5 is_stmt 1 view .LVU1981
	cmpq	$0, 104(%rsp)
	je	.L778
	.loc 2 83 9 view .LVU1982
.LVL628:
.LBB2410:
	.loc 2 71 5 view .LVU1983
.LBB2409:
	.loc 2 72 5 view .LVU1984
	.loc 2 75 5 view .LVU1985
	xorl	%edi, %edi
	cmpl	60(%rsp), %esi
	jle	.L321
	movq	16(%r15), %rax
	movq	%rax, 96(%rsp)
	jmp	.L335
.LVL629:
.L387:
	.loc 2 75 5 is_stmt 0 view .LVU1986
.LBE2409:
.LBE2410:
.LBE2416:
.LBE2424:
.LBE2431:
.LBE2481:
.LBE2498:
.LBE2517:
.LBE2535:
.LBE2687:
.LBE2718:
.LBE2745:
.LBE2771:
.LBE2819:
.LBB2820:
.LBB2380:
.LBB2357:
.LBB2334:
.LBB2310:
.LBB2118:
.LBB2104:
.LBB2092:
.LBB2081:
.LBB2063:
.LBB2056:
.LBB2048:
	.loc 2 82 5 is_stmt 1 view .LVU1987
	testq	%r12, %r12
	je	.L391
	.loc 2 83 9 view .LVU1988
.LVL630:
.LBB2042:
	.loc 2 71 5 view .LVU1989
.LBB2041:
	.loc 2 72 5 view .LVU1990
	.loc 2 75 5 view .LVU1991
	cmpl	88(%rsp), %esi
	jle	.L391
	movl	$0, 96(%rsp)
	jmp	.L392
.LVL631:
.L340:
	.loc 2 75 5 is_stmt 0 view .LVU1992
.LBE2041:
.LBE2042:
.LBE2048:
.LBE2056:
.LBE2063:
.LBE2081:
.LBE2092:
.LBE2104:
.LBE2118:
.LBE2310:
.LBE2334:
.LBE2357:
.LBE2380:
.LBE2820:
.LBB2821:
.LBB2772:
.LBB2746:
.LBB2719:
.LBB2688:
.LBB2536:
.LBB2518:
.LBB2499:
.LBB2482:
.LBB2462:
.LBB2457:
.LBB2453:
	.loc 2 82 5 is_stmt 1 view .LVU1993
	cmpq	$0, 96(%rsp)
	je	.L327
	.loc 2 83 9 view .LVU1994
.LVL632:
.LBB2449:
	.loc 2 71 5 view .LVU1995
.LBB2448:
	.loc 2 72 5 view .LVU1996
	.loc 2 75 5 view .LVU1997
	cmpl	48(%rsp), %esi
	jle	.L327
	movq	96(%rsp), %rcx
	movl	40(%rsp), %r8d
	movl	48(%rsp), %edx
	call	_Z5get_yP4treeii.part.1
.LVL633:
	.loc 2 75 5 is_stmt 0 view .LVU1998
.LBE2448:
.LBE2449:
.LBE2453:
.LBE2457:
.LBE2462:
.LBE2482:
.LBE2499:
.LBE2518:
.LBE2536:
.LBE2688:
.LBE2719:
.LBE2746:
.LBE2772:
.LBE2821:
.LBE2860:
.LBE2896:
.LBE2929:
.LBE3788:
	.loc 2 18 9 is_stmt 1 view .LVU1999
	movl	$0, %ecx
	testl	%eax, %eax
	cmovs	%ecx, %eax
.LVL634:
.LBB3789:
.LBB2930:
.LBB2897:
.LBB2861:
.LBB2822:
.LBB2773:
.LBB2747:
.LBB2720:
.LBB2689:
.LBB2537:
.LBB2519:
.LBB2500:
.LBB2483:
	.loc 2 17 41 view .LVU2000
.LBB2477:
	.loc 2 18 9 view .LVU2001
	cmpl	%eax, %edi
	jge	.L327
.LVL635:
.L339:
	.loc 2 18 9 is_stmt 0 view .LVU2002
.LBE2477:
.LBE2483:
.LBE2500:
.LBE2519:
.LBE2537:
.LBE2689:
.LBB2690:
	.loc 2 17 41 is_stmt 1 view .LVU2003
.LBB2669:
	.loc 2 18 9 view .LVU2004
.LBE2669:
.LBE2690:
.LBE2720:
.LBE2747:
.LBE2773:
.LBE2822:
.LBE2861:
.LBE2897:
.LBE2930:
.LBE3789:
.LBB3790:
.LBB3735:
.LBB3702:
.LBB3670:
.LBB3631:
.LBB3279:
.LBB3253:
.LBB3226:
.LBB3196:
.LBB3078:
.LBB3062:
.LBB3047:
.LBB3031:
.LBB3025:
	movl	%eax, %edi
	jmp	.L345
.LVL636:
.L450:
	.loc 2 18 9 is_stmt 0 view .LVU2005
.LBE3025:
.LBE3031:
.LBE3047:
.LBE3062:
.LBE3078:
.LBE3196:
.LBE3226:
.LBE3253:
.LBE3279:
.LBE3631:
.LBB3632:
.LBB3595:
.LBB3575:
.LBB3555:
.LBB3534:
.LBB3412:
.LBB3398:
.LBB3385:
.LBB3371:
.LBB3329:
.LBB3326:
.LBB3322:
	.loc 2 82 5 is_stmt 1 view .LVU2006
	cmpq	$0, 104(%rsp)
	je	.L403
	.loc 2 83 9 view .LVU2007
.LVL637:
.LBB3320:
	.loc 2 71 5 view .LVU2008
.LBB3319:
	.loc 2 72 5 view .LVU2009
	.loc 2 75 5 view .LVU2010
	cmpl	80(%rsp), %esi
	jle	.L403
	movq	16(%r15), %rax
	xorl	%r12d, %r12d
	movq	%rax, 96(%rsp)
	jmp	.L454
.LVL638:
.L413:
	.loc 2 75 5 is_stmt 0 view .LVU2011
.LBE3319:
.LBE3320:
.LBE3322:
.LBE3326:
.LBE3329:
.LBE3371:
.LBE3385:
.LBE3398:
.LBE3412:
.LBE3534:
.LBE3555:
.LBE3575:
.LBE3595:
.LBE3632:
.LBB3633:
.LBB3280:
.LBB3254:
.LBB3227:
.LBB3197:
.LBB3079:
.LBB3063:
.LBB3048:
.LBB3032:
.LBB2990:
.LBB2986:
.LBB2981:
	.loc 2 82 5 is_stmt 1 view .LVU2012
	cmpq	$0, 104(%rsp)
	je	.L779
	.loc 2 83 9 view .LVU2013
.LVL639:
.LBB2978:
	.loc 2 71 5 view .LVU2014
.LBB2977:
	.loc 2 72 5 view .LVU2015
	.loc 2 75 5 view .LVU2016
	xorl	%edi, %edi
	cmpl	60(%rsp), %esi
	jle	.L403
	movq	16(%r15), %rax
	movq	%rax, 96(%rsp)
	jmp	.L417
.LVL640:
.L357:
	.loc 2 75 5 is_stmt 0 view .LVU2017
.LBE2977:
.LBE2978:
.LBE2981:
.LBE2986:
.LBE2990:
.LBE3032:
.LBE3048:
.LBE3063:
.LBE3079:
.LBE3197:
.LBE3227:
.LBE3254:
.LBE3280:
.LBE3633:
.LBE3670:
.LBE3702:
.LBE3735:
.LBE3790:
.LBB3791:
.LBB2931:
.LBB2898:
.LBB2862:
.LBB2823:
.LBB2774:
.LBB2748:
.LBB2721:
.LBB2691:
.LBB2659:
.LBB2649:
.LBB2640:
.LBB2630:
.LBB2618:
.LBB2612:
.LBB2607:
	.loc 2 82 5 is_stmt 1 view .LVU2018
	testq	%r12, %r12
	je	.L356
	.loc 2 83 9 view .LVU2019
.LVL641:
.LBB2602:
	.loc 2 71 5 view .LVU2020
.LBB2599:
	.loc 2 72 5 view .LVU2021
	.loc 2 75 5 view .LVU2022
	cmpl	72(%rsp), %esi
	jle	.L356
	movl	$0, 96(%rsp)
	jmp	.L549
.LVL642:
.L422:
	.loc 2 75 5 is_stmt 0 view .LVU2023
.LBE2599:
.LBE2602:
.LBE2607:
.LBE2612:
.LBE2618:
.LBE2630:
.LBE2640:
.LBE2649:
.LBE2659:
.LBE2691:
.LBE2721:
.LBE2748:
.LBE2774:
.LBE2823:
.LBE2862:
.LBE2898:
.LBE2931:
.LBE3791:
.LBB3792:
.LBB3736:
.LBB3703:
.LBB3671:
.LBB3634:
.LBB3281:
.LBB3255:
.LBB3228:
.LBB3198:
.LBB3080:
.LBB3064:
.LBB3049:
.LBB3033:
.LBB3020:
.LBB3017:
.LBB3015:
	.loc 2 82 5 is_stmt 1 view .LVU2024
	cmpq	$0, 96(%rsp)
	je	.L409
	.loc 2 83 9 view .LVU2025
.LVL643:
.LBB3013:
	.loc 2 71 5 view .LVU2026
.LBB3012:
	.loc 2 72 5 view .LVU2027
	.loc 2 75 5 view .LVU2028
	cmpl	48(%rsp), %esi
	jle	.L409
	movq	96(%rsp), %rcx
	movl	40(%rsp), %r8d
	movl	48(%rsp), %edx
	call	_Z5get_yP4treeii.part.1
.LVL644:
	.loc 2 75 5 is_stmt 0 view .LVU2029
.LBE3012:
.LBE3013:
.LBE3015:
.LBE3017:
.LBE3020:
.LBE3033:
.LBE3049:
.LBE3064:
.LBE3080:
.LBE3198:
.LBE3228:
.LBE3255:
.LBE3281:
.LBE3634:
.LBE3671:
.LBE3703:
.LBE3736:
.LBE3792:
	.loc 2 18 9 is_stmt 1 view .LVU2030
	movl	$0, %ecx
	testl	%eax, %eax
	cmovs	%ecx, %eax
.LVL645:
.LBB3793:
.LBB3737:
.LBB3704:
.LBB3672:
.LBB3635:
.LBB3282:
.LBB3256:
.LBB3229:
.LBB3199:
.LBB3081:
.LBB3065:
.LBB3050:
.LBB3034:
	.loc 2 17 41 view .LVU2031
.LBB3026:
	.loc 2 18 9 view .LVU2032
	cmpl	%edi, %eax
	jle	.L409
.LVL646:
.L421:
	.loc 2 18 9 is_stmt 0 view .LVU2033
.LBE3026:
.LBE3034:
.LBE3050:
.LBE3065:
.LBE3081:
.LBE3199:
.LBB3200:
	.loc 2 17 41 is_stmt 1 view .LVU2034
.LBB3090:
	.loc 2 18 9 view .LVU2035
.LBE3090:
.LBE3200:
.LBE3229:
.LBE3256:
.LBE3282:
.LBE3635:
.LBE3672:
.LBE3704:
.LBE3737:
.LBE3793:
.LBB3794:
.LBB1977:
	.loc 2 15 70 is_stmt 0 view .LVU2036
	movl	%eax, %edi
	jmp	.L427
.LVL647:
.L351:
	.loc 2 15 70 view .LVU2037
.LBE1977:
.LBE3794:
.LBB3795:
.LBB2932:
.LBB2899:
.LBB2863:
.LBB2824:
.LBB2775:
.LBB2749:
.LBB2722:
.LBB2692:
.LBB2660:
.LBB2650:
.LBB2641:
.LBB2631:
.LBB2582:
.LBB2576:
.LBB2569:
	.loc 2 82 5 is_stmt 1 view .LVU2038
	cmpq	$0, 96(%rsp)
	je	.L324
	.loc 2 83 9 view .LVU2039
.LVL648:
.LBB2564:
	.loc 2 71 5 view .LVU2040
.LBB2563:
	.loc 2 72 5 view .LVU2041
	.loc 2 75 5 view .LVU2042
	xorl	%r15d, %r15d
	cmpl	68(%rsp), %esi
	jg	.L355
	jmp	.L324
.LVL649:
.L418:
	.loc 2 75 5 is_stmt 0 view .LVU2043
.LBE2563:
.LBE2564:
.LBE2569:
.LBE2576:
.LBE2582:
.LBE2631:
.LBE2641:
.LBE2650:
.LBE2660:
.LBE2692:
.LBE2722:
.LBE2749:
.LBE2775:
.LBE2824:
.LBE2863:
.LBE2899:
.LBE2932:
.LBE3795:
.LBB3796:
.LBB3738:
.LBB3705:
.LBB3673:
.LBB3636:
.LBB3283:
.LBB3257:
.LBB3230:
.LBB3201:
.LBB3082:
.LBB3066:
.LBB3051:
.LBB3035:
.LBB2996:
	.loc 2 18 28 is_stmt 1 view .LVU2044
	.loc 2 18 28 is_stmt 0 view .LVU2045
.LBE2996:
.LBE3035:
	.loc 2 82 5 is_stmt 1 view .LVU2046
	cmpq	$0, 16(%r15)
	movl	%edi, %eax
	jne	.L421
.LVL650:
.L507:
	.loc 2 82 5 is_stmt 0 view .LVU2047
.LBE3051:
.LBE3066:
.LBE3082:
.LBE3201:
.LBB3202:
.LBB3091:
	.loc 2 18 28 is_stmt 1 view .LVU2048
	.loc 2 18 28 is_stmt 0 view .LVU2049
.LBE3091:
.LBE3202:
	.loc 2 82 5 is_stmt 1 view .LVU2050
	cmpq	$0, 16(%r12)
	je	.L403
.LVL651:
.L580:
	.loc 2 82 5 is_stmt 0 view .LVU2051
	movl	%edi, %r15d
.LVL652:
	.loc 2 82 5 view .LVU2052
.LBE3230:
.LBE3257:
.LBE3283:
.LBE3636:
.LBB3637:
	.loc 2 17 41 is_stmt 1 view .LVU2053
.LBB3606:
	.loc 2 18 9 view .LVU2054
	jmp	.L589
.LVL653:
.L336:
	.loc 2 18 9 is_stmt 0 view .LVU2055
.LBE3606:
.LBE3637:
.LBE3673:
.LBE3705:
.LBE3738:
.LBE3796:
.LBB3797:
.LBB2933:
.LBB2900:
.LBB2864:
.LBB2825:
.LBB2776:
.LBB2750:
.LBB2723:
.LBB2693:
.LBB2538:
.LBB2520:
.LBB2501:
.LBB2484:
.LBB2472:
	.loc 2 18 28 is_stmt 1 view .LVU2056
	.loc 2 18 28 is_stmt 0 view .LVU2057
.LBE2472:
.LBE2484:
	.loc 2 82 5 is_stmt 1 view .LVU2058
	cmpq	$0, 16(%r15)
	movl	%edi, %eax
	jne	.L339
.LVL654:
.L534:
	.loc 2 82 5 is_stmt 0 view .LVU2059
.LBE2501:
.LBE2520:
.LBE2538:
.LBE2693:
.LBB2694:
.LBB2670:
	.loc 2 18 28 is_stmt 1 view .LVU2060
	.loc 2 18 28 is_stmt 0 view .LVU2061
.LBE2670:
.LBE2694:
	.loc 2 82 5 is_stmt 1 view .LVU2062
	cmpq	$0, 16(%r12)
	je	.L321
.LVL655:
.L584:
	.loc 2 82 5 is_stmt 0 view .LVU2063
	movl	%edi, %r15d
.LVL656:
	.loc 2 82 5 view .LVU2064
.LBE2723:
.LBE2750:
.LBE2776:
.LBE2825:
.LBB2826:
	.loc 2 17 41 is_stmt 1 view .LVU2065
.LBB2797:
	.loc 2 18 9 view .LVU2066
	jmp	.L596
.LVL657:
	.p2align 4,,10
.L806:
	.loc 2 18 9 is_stmt 0 view .LVU2067
.LBE2797:
.LBE2826:
.LBE2864:
.LBE2900:
.LBE2933:
.LBE3797:
.LBB3798:
.LBB3739:
.LBB3706:
.LBB3674:
.LBB3638:
.LBB3284:
.LBB3258:
.LBB3231:
.LBB3203:
.LBB3083:
.LBB3067:
.LBB3052:
.LBB3036:
.LBB2991:
.LBB2987:
.LBB2982:
.LBB2979:
.LBB2972:
	.loc 2 73 9 is_stmt 1 view .LVU2068
.LBB2970:
.LBI2970:
	.loc 2 21 36 view .LVU2069
.LBB2971:
	.loc 2 21 57 view .LVU2070
	.loc 2 21 64 is_stmt 0 view .LVU2071
	movl	(%rcx), %edi
.LVL658:
	.loc 2 21 64 view .LVU2072
	jmp	.L415
.LVL659:
.L816:
	.loc 2 21 64 view .LVU2073
.LBE2971:
.LBE2970:
.LBE2972:
.LBE2979:
.LBE2982:
.LBE2987:
.LBE2991:
.LBE3036:
.LBE3052:
.LBE3067:
.LBE3083:
.LBE3203:
.LBE3231:
.LBE3258:
.LBE3284:
.LBE3638:
.LBE3674:
.LBE3706:
.LBE3739:
.LBE3798:
.LBB3799:
.LBB2934:
.LBB2901:
.LBB2865:
.LBB2827:
.LBB2777:
.LBB2751:
.LBB2724:
.LBB2695:
.LBB2539:
.LBB2521:
.LBB2502:
.LBB2485:
.LBB2432:
.LBB2425:
.LBB2417:
.LBB2411:
.LBB2404:
	.loc 2 73 9 is_stmt 1 view .LVU2074
.LBB2402:
.LBI2402:
	.loc 2 21 36 view .LVU2075
.LBB2403:
	.loc 2 21 57 view .LVU2076
	.loc 2 21 64 is_stmt 0 view .LVU2077
	movl	(%rcx), %edi
.LVL660:
	.loc 2 21 64 view .LVU2078
	jmp	.L333
.LVL661:
.L792:
	.loc 2 21 64 view .LVU2079
.LBE2403:
.LBE2402:
.LBE2404:
.LBE2411:
.LBE2417:
.LBE2425:
.LBE2432:
.LBE2485:
.LBE2502:
.LBE2521:
.LBE2539:
.LBE2695:
.LBE2724:
.LBE2751:
.LBE2777:
.LBE2827:
.LBE2865:
.LBE2901:
.LBE2934:
.LBE3799:
.LBB3800:
.LBB3740:
.LBB3707:
.LBB3675:
.LBB3639:
.LBB3285:
.LBB3259:
.LBB3232:
.LBB3204:
.LBB3180:
.LBB3172:
.LBB3165:
.LBB3158:
.LBB3125:
.LBB3122:
.LBB3118:
.LBB3116:
.LBB3109:
	.loc 2 73 9 is_stmt 1 view .LVU2080
.LBB3107:
.LBI3107:
	.loc 2 21 36 view .LVU2081
.LBB3108:
	.loc 2 21 57 view .LVU2082
	.loc 2 21 64 is_stmt 0 view .LVU2083
	movl	(%rcx), %r15d
.LVL662:
	.loc 2 21 64 view .LVU2084
	jmp	.L435
.LVL663:
.L818:
	.loc 2 21 64 view .LVU2085
.LBE3108:
.LBE3107:
.LBE3109:
.LBE3116:
.LBE3118:
.LBE3122:
.LBE3125:
.LBE3158:
.LBE3165:
.LBE3172:
.LBE3180:
.LBE3204:
.LBE3232:
.LBE3259:
.LBE3285:
.LBE3639:
.LBE3675:
.LBE3707:
.LBE3740:
.LBE3800:
.LBB3801:
.LBB2935:
.LBB2902:
.LBB2866:
.LBB2828:
.LBB2778:
.LBB2752:
.LBB2725:
.LBB2696:
.LBB2540:
.LBB2522:
.LBB2503:
.LBB2486:
.LBB2463:
.LBB2458:
.LBB2454:
.LBB2450:
.LBB2443:
	.loc 2 73 9 is_stmt 1 view .LVU2086
.LBB2441:
.LBI2441:
	.loc 2 21 36 view .LVU2087
.LBB2442:
	.loc 2 21 57 view .LVU2088
	.loc 2 21 64 is_stmt 0 view .LVU2089
	movl	(%rcx), %r15d
.LVL664:
	.loc 2 21 64 view .LVU2090
	jmp	.L342
.LVL665:
.L391:
	.loc 2 21 64 view .LVU2091
.LBE2442:
.LBE2441:
.LBE2443:
.LBE2450:
.LBE2454:
.LBE2458:
.LBE2463:
.LBE2486:
.LBE2503:
.LBE2522:
.LBE2540:
.LBE2696:
.LBE2725:
.LBE2752:
.LBE2778:
.LBE2828:
.LBB2829:
.LBB2381:
.LBB2358:
.LBB2335:
.LBB2311:
.LBB2119:
.LBB2105:
.LBB2093:
	.loc 2 82 5 is_stmt 1 view .LVU2092
	cmpq	$0, 16(%rbp)
	movl	%r15d, %r12d
	jne	.L382
	jmp	.L383
.LVL666:
.L785:
	.loc 2 82 5 is_stmt 0 view .LVU2093
.LBE2093:
.LBE2105:
.LBE2119:
.LBE2311:
.LBE2335:
.LBE2358:
.LBE2381:
.LBE2829:
.LBB2830:
.LBB2779:
.LBB2753:
.LBB2726:
.LBB2697:
.LBB2661:
.LBB2651:
.LBB2642:
.LBB2632:
.LBB2583:
.LBB2577:
.LBB2570:
.LBB2565:
.LBB2558:
	.loc 2 73 9 is_stmt 1 view .LVU2094
.LBB2556:
.LBI2556:
	.loc 2 21 36 view .LVU2095
.LBB2557:
	.loc 2 21 57 view .LVU2096
	.loc 2 21 64 is_stmt 0 view .LVU2097
	movl	(%rcx), %r15d
.LVL667:
	.loc 2 21 64 view .LVU2098
	jmp	.L353
.LVL668:
.L786:
	.loc 2 21 64 view .LVU2099
.LBE2557:
.LBE2556:
.LBE2558:
.LBE2565:
.LBE2570:
.LBE2577:
.LBE2583:
.LBE2632:
.LBB2633:
.LBB2619:
.LBB2613:
.LBB2608:
.LBB2603:
.LBB2594:
	.loc 2 73 9 is_stmt 1 view .LVU2100
.LBB2592:
.LBI2592:
	.loc 2 21 36 view .LVU2101
.LBB2593:
	.loc 2 21 57 view .LVU2102
	.loc 2 21 64 is_stmt 0 view .LVU2103
	movl	(%rcx), %eax
.LVL669:
	.loc 2 21 64 view .LVU2104
	jmp	.L359
.LVL670:
.L788:
	.loc 2 21 64 view .LVU2105
.LBE2593:
.LBE2592:
.LBE2594:
.LBE2603:
.LBE2608:
.LBE2613:
.LBE2619:
.LBE2633:
.LBE2642:
.LBE2651:
.LBE2661:
.LBE2697:
.LBE2726:
.LBE2753:
.LBE2779:
.LBE2830:
.LBB2831:
.LBB2382:
.LBB2359:
.LBB2336:
.LBB2312:
.LBB2120:
.LBB2106:
.LBB2094:
.LBB2082:
.LBB2064:
.LBB2057:
.LBB2049:
.LBB2043:
.LBB2036:
	.loc 2 73 9 is_stmt 1 view .LVU2106
.LBB2034:
.LBI2034:
	.loc 2 21 36 view .LVU2107
.LBB2035:
	.loc 2 21 57 view .LVU2108
	.loc 2 21 64 is_stmt 0 view .LVU2109
	movl	(%rcx), %eax
.LVL671:
	.loc 2 21 64 view .LVU2110
	movl	%eax, 96(%rsp)
.LVL672:
	.loc 2 21 64 view .LVU2111
	jmp	.L389
.LVL673:
.L811:
	.loc 2 21 64 view .LVU2112
.LBE2035:
.LBE2034:
.LBE2036:
.LBE2043:
.LBE2049:
.LBE2057:
.LBE2064:
.LBE2082:
.LBE2094:
.LBE2106:
.LBE2120:
.LBE2312:
.LBE2336:
.LBE2359:
.LBE2382:
.LBE2831:
.LBE2866:
.LBE2902:
.LBE2935:
.LBE3801:
.LBB3802:
.LBB3741:
.LBB3708:
.LBB3676:
.LBB3640:
.LBB3596:
.LBB3576:
.LBB3556:
.LBB3535:
.LBB3413:
.LBB3399:
.LBB3386:
.LBB3372:
.LBB3330:
.LBB3327:
.LBB3323:
.LBB3321:
.LBB3314:
	.loc 2 73 9 is_stmt 1 view .LVU2113
.LBB3312:
.LBI3312:
	.loc 2 21 36 view .LVU2114
.LBB3313:
	.loc 2 21 57 view .LVU2115
	.loc 2 21 64 is_stmt 0 view .LVU2116
	movl	(%rcx), %r12d
.LVL674:
	.loc 2 21 64 view .LVU2117
	jmp	.L452
.LVL675:
.L808:
	.loc 2 21 64 view .LVU2118
.LBE3313:
.LBE3312:
.LBE3314:
.LBE3321:
.LBE3323:
.LBE3327:
.LBE3330:
.LBE3372:
.LBE3386:
.LBE3399:
.LBE3413:
.LBE3535:
.LBE3556:
.LBE3576:
.LBE3596:
.LBE3640:
.LBB3641:
.LBB3286:
.LBB3260:
.LBB3233:
.LBB3205:
.LBB3084:
.LBB3068:
.LBB3053:
.LBB3037:
.LBB3021:
.LBB3018:
.LBB3016:
.LBB3014:
.LBB3007:
	.loc 2 73 9 is_stmt 1 view .LVU2119
.LBB3005:
.LBI3005:
	.loc 2 21 36 view .LVU2120
.LBB3006:
	.loc 2 21 57 view .LVU2121
	.loc 2 21 64 is_stmt 0 view .LVU2122
	movl	(%rcx), %r15d
.LVL676:
	.loc 2 21 64 view .LVU2123
	jmp	.L424
.LVL677:
.L796:
	.loc 2 21 64 view .LVU2124
.LBE3006:
.LBE3005:
.LBE3007:
.LBE3014:
.LBE3016:
.LBE3018:
.LBE3021:
.LBE3037:
.LBE3053:
.LBE3068:
.LBE3084:
.LBE3205:
.LBE3233:
.LBE3260:
.LBE3286:
.LBE3641:
.LBB3642:
.LBB3597:
.LBB3577:
.LBB3557:
.LBB3536:
.LBB3512:
.LBB3503:
.LBB3495:
.LBB3488:
.LBB3480:
.LBB3476:
.LBB3474:
.LBB3472:
.LBB3463:
	.loc 2 73 9 is_stmt 1 view .LVU2125
.LBB3461:
.LBI3461:
	.loc 2 21 36 view .LVU2126
.LBB3462:
	.loc 2 21 57 view .LVU2127
	.loc 2 21 64 is_stmt 0 view .LVU2128
	movl	(%rcx), %r12d
.LVL678:
	.loc 2 21 64 view .LVU2129
	jmp	.L480
.LVL679:
.L813:
	.loc 2 21 64 view .LVU2130
.LBE3462:
.LBE3461:
.LBE3463:
.LBE3472:
.LBE3474:
.LBE3476:
.LBE3480:
.LBE3488:
.LBE3495:
.LBE3503:
.LBE3512:
.LBE3536:
.LBB3537:
.LBB3414:
.LBB3400:
.LBB3387:
.LBB3373:
.LBB3359:
.LBB3355:
.LBB3353:
.LBB3351:
.LBB3344:
	.loc 2 73 9 is_stmt 1 view .LVU2131
.LBB3342:
.LBI3342:
	.loc 2 21 36 view .LVU2132
.LBB3343:
	.loc 2 21 57 view .LVU2133
	.loc 2 21 64 is_stmt 0 view .LVU2134
	movl	(%rcx), %r15d
.LVL680:
	.loc 2 21 64 view .LVU2135
	jmp	.L461
.LVL681:
.L803:
	.loc 2 21 64 view .LVU2136
.LBE3343:
.LBE3342:
.LBE3344:
.LBE3351:
.LBE3353:
.LBE3355:
.LBE3359:
.LBE3373:
.LBE3387:
.LBE3400:
.LBE3414:
.LBE3537:
.LBE3557:
.LBE3577:
.LBE3597:
.LBE3642:
.LBE3676:
.LBE3708:
.LBE3741:
.LBE3802:
.LBB3803:
.LBB2936:
.LBB2903:
.LBB2867:
.LBB2832:
.LBB2383:
.LBB2360:
.LBB2337:
.LBB2313:
.LBB2273:
.LBB2255:
.LBB2236:
.LBB2218:
.LBB2195:
.LBB2188:
.LBB2183:
.LBB2178:
.LBB2171:
	.loc 2 73 9 is_stmt 1 view .LVU2137
.LBB2169:
.LBI2169:
	.loc 2 21 36 view .LVU2138
.LBB2170:
	.loc 2 21 57 view .LVU2139
	.loc 2 21 64 is_stmt 0 view .LVU2140
	movl	(%rcx), %r15d
.LVL682:
	.loc 2 21 64 view .LVU2141
	jmp	.L379
.LVL683:
.L793:
	.loc 2 21 64 view .LVU2142
.LBE2170:
.LBE2169:
.LBE2171:
.LBE2178:
.LBE2183:
.LBE2188:
.LBE2195:
.LBE2218:
.LBE2236:
.LBE2255:
.LBE2273:
.LBE2313:
.LBE2337:
.LBE2360:
.LBE2383:
.LBE2832:
.LBE2867:
.LBE2903:
.LBE2936:
.LBE3803:
.LBB3804:
.LBB3742:
.LBB3709:
.LBB3677:
.LBB3643:
.LBB3287:
.LBB3261:
.LBB3234:
.LBB3206:
.LBB3181:
.LBB3173:
.LBB3166:
.LBB3159:
.LBB3153:
.LBB3150:
.LBB3148:
.LBB3146:
.LBB3137:
	.loc 2 73 9 is_stmt 1 view .LVU2143
.LBB3135:
.LBI3135:
	.loc 2 21 36 view .LVU2144
.LBB3136:
	.loc 2 21 57 view .LVU2145
	.loc 2 21 64 is_stmt 0 view .LVU2146
	movl	(%rcx), %eax
.LVL684:
	.loc 2 21 64 view .LVU2147
	jmp	.L441
.LVL685:
.L795:
	.loc 2 21 64 view .LVU2148
.LBE3136:
.LBE3135:
.LBE3137:
.LBE3146:
.LBE3148:
.LBE3150:
.LBE3153:
.LBE3159:
.LBE3166:
.LBE3173:
.LBE3181:
.LBE3206:
.LBE3234:
.LBE3261:
.LBE3287:
.LBE3643:
.LBB3644:
.LBB3598:
.LBB3578:
.LBB3558:
.LBB3538:
.LBB3513:
.LBB3504:
.LBB3496:
.LBB3489:
.LBB3451:
.LBB3448:
.LBB3444:
.LBB3442:
.LBB3435:
	.loc 2 73 9 is_stmt 1 view .LVU2149
.LBB3433:
.LBI3433:
	.loc 2 21 36 view .LVU2150
.LBB3434:
	.loc 2 21 57 view .LVU2151
	.loc 2 21 64 is_stmt 0 view .LVU2152
	movl	(%rcx), %eax
.LVL686:
	.loc 2 21 64 view .LVU2153
	movl	%eax, 96(%rsp)
.LVL687:
	.loc 2 21 64 view .LVU2154
	jmp	.L471
.LVL688:
.L789:
	.loc 2 21 64 view .LVU2155
.LBE3434:
.LBE3433:
.LBE3435:
.LBE3442:
.LBE3444:
.LBE3448:
.LBE3451:
.LBE3489:
.LBE3496:
.LBE3504:
.LBE3513:
.LBE3538:
.LBE3558:
.LBE3578:
.LBE3598:
.LBE3644:
.LBE3677:
.LBE3709:
.LBE3742:
.LBE3804:
.LBB3805:
.LBB2937:
.LBB2904:
.LBB2868:
.LBB2833:
.LBB2384:
.LBB2361:
.LBB2338:
.LBB2314:
.LBB2121:
.LBB2107:
.LBB2095:
.LBB2083:
.LBB2026:
.LBB2019:
.LBB2014:
.LBB2009:
.LBB2000:
	.loc 2 73 9 is_stmt 1 view .LVU2156
.LBB1998:
.LBI1998:
	.loc 2 21 36 view .LVU2157
.LBB1999:
	.loc 2 21 57 view .LVU2158
	.loc 2 21 64 is_stmt 0 view .LVU2159
	movl	(%rcx), %r12d
.LVL689:
	.loc 2 21 64 view .LVU2160
	jmp	.L398
.LVL690:
.L801:
	.loc 2 21 64 view .LVU2161
.LBE1999:
.LBE1998:
.LBE2000:
.LBE2009:
.LBE2014:
.LBE2019:
.LBE2026:
.LBE2083:
.LBE2095:
.LBE2107:
.LBE2121:
.LBE2314:
.LBB2315:
.LBB2274:
.LBB2256:
.LBB2237:
.LBB2219:
.LBB2160:
.LBB2154:
.LBB2147:
.LBB2142:
.LBB2135:
	.loc 2 73 9 is_stmt 1 view .LVU2162
.LBB2133:
.LBI2133:
	.loc 2 21 36 view .LVU2163
.LBB2134:
	.loc 2 21 57 view .LVU2164
	.loc 2 21 64 is_stmt 0 view .LVU2165
	movl	(%rcx), %r12d
.LVL691:
	.loc 2 21 64 view .LVU2166
	jmp	.L370
.LVL692:
.L473:
	.loc 2 21 64 view .LVU2167
.LBE2134:
.LBE2133:
.LBE2135:
.LBE2142:
.LBE2147:
.LBE2154:
.LBE2160:
.LBE2219:
.LBE2237:
.LBE2256:
.LBE2274:
.LBE2315:
.LBE2338:
.LBE2361:
.LBE2384:
.LBE2833:
.LBE2868:
.LBE2904:
.LBE2937:
.LBE3805:
.LBB3806:
.LBB3743:
.LBB3710:
.LBB3678:
.LBB3645:
.LBB3599:
.LBB3579:
.LBB3559:
.LBB3539:
.LBB3514:
.LBB3505:
.LBB3497:
	.loc 2 82 5 is_stmt 1 view .LVU2168
	cmpq	$0, 16(%rbp)
	movl	%r15d, %r12d
	jne	.L464
	jmp	.L465
.LVL693:
.L807:
	.loc 2 82 5 is_stmt 0 view .LVU2169
.LBE3497:
.LBE3505:
.LBE3514:
.LBE3539:
.LBE3559:
.LBE3579:
.LBE3599:
.LBE3645:
.LBB3646:
.LBB3288:
.LBB3262:
.LBB3235:
.LBB3207:
.LBB3085:
.LBB3069:
.LBB3054:
.LBB3038:
.LBB2997:
	.loc 2 18 28 is_stmt 1 view .LVU2170
	.loc 2 18 28 is_stmt 0 view .LVU2171
.LBE2997:
.LBE3038:
	.loc 2 82 5 is_stmt 1 view .LVU2172
	cmpq	$0, 96(%rsp)
	jne	.L427
.LVL694:
	.loc 2 82 5 is_stmt 0 view .LVU2173
.LBE3054:
.LBE3069:
.LBE3085:
.LBE3207:
.LBB3208:
.LBB3092:
	.loc 2 18 28 is_stmt 1 view .LVU2174
	.loc 2 18 28 is_stmt 0 view .LVU2175
.LBE3092:
.LBE3208:
	.loc 2 82 5 is_stmt 1 view .LVU2176
	cmpq	$0, 16(%r12)
	je	.L403
	jmp	.L404
.LVL695:
.L343:
	.loc 2 82 5 is_stmt 0 view .LVU2177
.LBE3235:
.LBE3262:
.LBE3288:
.LBE3646:
.LBE3678:
.LBE3710:
.LBE3743:
.LBE3806:
.LBB3807:
.LBB2938:
.LBB2905:
.LBB2869:
.LBB2834:
.LBB2780:
.LBB2754:
.LBB2727:
.LBB2698:
.LBB2541:
.LBB2523:
.LBB2504:
.LBB2487:
	.loc 2 17 41 is_stmt 1 view .LVU2178
.LBB2478:
	.loc 2 18 9 view .LVU2179
	cmpl	%edi, %r15d
	jle	.L559
.LVL696:
	.loc 2 18 9 is_stmt 0 view .LVU2180
.LBE2478:
.LBE2487:
.LBE2504:
.LBE2523:
.LBE2541:
.LBE2698:
.LBB2699:
.LBB2671:
	.loc 2 18 28 is_stmt 1 view .LVU2181
	.loc 2 18 28 is_stmt 0 view .LVU2182
.LBE2671:
.LBE2699:
	.loc 2 82 5 is_stmt 1 view .LVU2183
	cmpq	$0, 16(%r12)
	jne	.L596
	movl	%r15d, %edi
	jmp	.L321
.LVL697:
.L817:
.LBB2700:
.LBB2542:
.LBB2524:
.LBB2505:
.LBB2488:
.LBB2473:
	.loc 2 18 28 view .LVU2184
	.loc 2 18 28 is_stmt 0 view .LVU2185
.LBE2473:
.LBE2488:
	.loc 2 82 5 is_stmt 1 view .LVU2186
	cmpq	$0, 96(%rsp)
	jne	.L345
.LVL698:
	.loc 2 82 5 is_stmt 0 view .LVU2187
.LBE2505:
.LBE2524:
.LBE2542:
.LBE2700:
.LBB2701:
.LBB2672:
	.loc 2 18 28 is_stmt 1 view .LVU2188
	.loc 2 18 28 is_stmt 0 view .LVU2189
.LBE2672:
.LBE2701:
	.loc 2 82 5 is_stmt 1 view .LVU2190
	cmpq	$0, 16(%r12)
	je	.L321
	jmp	.L322
.LVL699:
.L812:
	.loc 2 82 5 is_stmt 0 view .LVU2191
.LBE2727:
.LBE2754:
.LBE2780:
.LBE2834:
.LBE2869:
.LBE2905:
.LBE2938:
.LBE3807:
.LBB3808:
.LBB3744:
.LBB3711:
.LBB3679:
.LBB3647:
.LBB3600:
.LBB3580:
.LBB3560:
.LBB3540:
.LBB3415:
.LBB3401:
.LBB3388:
.LBB3374:
.LBB3333:
	.loc 2 18 28 is_stmt 1 view .LVU2192
	.loc 2 18 28 is_stmt 0 view .LVU2193
.LBE3333:
.LBE3374:
	.loc 2 82 5 is_stmt 1 view .LVU2194
	cmpq	$0, 96(%rsp)
	je	.L491
	jmp	.L541
.LVL700:
.L802:
	.loc 2 82 5 is_stmt 0 view .LVU2195
.LBE3388:
.LBE3401:
.LBE3415:
.LBE3540:
.LBE3560:
.LBE3580:
.LBE3600:
.LBE3647:
.LBE3679:
.LBE3711:
.LBE3744:
.LBE3808:
.LBB3809:
.LBB2939:
.LBB2906:
.LBB2870:
.LBB2835:
.LBB2385:
.LBB2362:
.LBB2339:
.LBB2316:
.LBB2275:
.LBB2257:
.LBB2238:
.LBB2220:
.LBB2204:
	.loc 2 18 28 is_stmt 1 view .LVU2196
	.loc 2 18 28 is_stmt 0 view .LVU2197
.LBE2204:
.LBE2220:
	.loc 2 82 5 is_stmt 1 view .LVU2198
	cmpq	$0, 96(%rsp)
	je	.L518
	jmp	.L548
.LVL701:
.L425:
	.loc 2 82 5 is_stmt 0 view .LVU2199
.LBE2238:
.LBE2257:
.LBE2275:
.LBE2316:
.LBE2339:
.LBE2362:
.LBE2385:
.LBE2835:
.LBE2870:
.LBE2906:
.LBE2939:
.LBE3809:
.LBB3810:
.LBB3745:
.LBB3712:
.LBB3680:
.LBB3648:
.LBB3289:
.LBB3263:
.LBB3236:
.LBB3209:
.LBB3086:
.LBB3070:
.LBB3055:
.LBB3039:
	.loc 2 17 41 is_stmt 1 view .LVU2200
.LBB3027:
	.loc 2 18 9 view .LVU2201
	cmpl	%edi, %r15d
	jle	.L570
.LVL702:
	.loc 2 18 9 is_stmt 0 view .LVU2202
.LBE3027:
.LBE3039:
.LBE3055:
.LBE3070:
.LBE3086:
.LBE3209:
.LBB3210:
.LBB3093:
	.loc 2 18 28 is_stmt 1 view .LVU2203
	.loc 2 18 28 is_stmt 0 view .LVU2204
.LBE3093:
.LBE3210:
	.loc 2 82 5 is_stmt 1 view .LVU2205
	cmpq	$0, 16(%r12)
	jne	.L589
	movl	%r15d, %edi
	jmp	.L403
.LVL703:
.L563:
	.loc 2 82 5 is_stmt 0 view .LVU2206
.LBE3236:
.LBE3263:
.LBE3289:
.LBE3648:
.LBE3680:
.LBE3712:
.LBE3745:
.LBE3810:
.LBB3811:
.LBB2940:
.LBB2907:
.LBB2871:
.LBB2836:
.LBB2386:
.LBB2363:
.LBB2340:
.LBB2317:
.LBB2276:
.LBB2258:
.LBB2239:
.LBB2221:
.LBB2196:
	.loc 2 75 5 view .LVU2207
	movl	%r12d, %eax
	jmp	.L376
.LVL704:
.L373:
	.loc 2 75 5 view .LVU2208
.LBE2196:
.LBE2221:
.LBB2222:
.LBB2205:
	.loc 2 18 28 is_stmt 1 view .LVU2209
	.loc 2 18 28 is_stmt 0 view .LVU2210
.LBE2205:
.LBE2222:
	.loc 2 82 5 is_stmt 1 view .LVU2211
	cmpq	$0, 16(%r15)
	movl	%r12d, %eax
	jne	.L376
.LVL705:
	.loc 2 82 5 is_stmt 0 view .LVU2212
	jmp	.L518
.LVL706:
.L559:
	.loc 2 82 5 view .LVU2213
.LBE2239:
.LBE2258:
.LBE2276:
.LBE2317:
.LBE2340:
.LBE2363:
.LBE2386:
.LBE2836:
.LBB2837:
.LBB2781:
.LBB2755:
.LBB2728:
.LBB2702:
.LBB2543:
.LBB2525:
.LBB2506:
.LBB2489:
.LBB2464:
	.loc 2 75 5 view .LVU2214
	movl	%edi, %eax
.LVL707:
	.loc 2 75 5 view .LVU2215
.LBE2464:
.LBE2489:
.LBE2506:
.LBE2525:
.LBE2543:
.LBE2702:
.LBB2703:
	.loc 2 17 41 is_stmt 1 view .LVU2216
.LBB2673:
	.loc 2 18 9 view .LVU2217
.LBE2673:
.LBE2703:
.LBE2728:
.LBE2755:
.LBE2781:
.LBE2837:
.LBE2871:
.LBE2907:
.LBE2940:
.LBE3811:
.LBB3812:
.LBB3746:
.LBB3713:
.LBB3681:
.LBB3649:
.LBB3290:
.LBB3264:
.LBB3237:
.LBB3211:
.LBB3087:
.LBB3071:
.LBB3056:
.LBB3040:
.LBB3028:
	movl	%eax, %edi
	jmp	.L345
.LVL708:
.L570:
	.loc 2 18 9 is_stmt 0 view .LVU2218
.LBE3028:
.LBE3040:
.LBB3041:
.LBB3022:
	.loc 2 75 5 view .LVU2219
	movl	%edi, %eax
.LVL709:
	.loc 2 75 5 view .LVU2220
.LBE3022:
.LBE3041:
.LBE3056:
.LBE3071:
.LBE3087:
.LBE3211:
.LBB3212:
	.loc 2 17 41 is_stmt 1 view .LVU2221
.LBB3094:
	.loc 2 18 9 view .LVU2222
.LBE3094:
.LBE3212:
.LBE3237:
.LBE3264:
.LBE3290:
.LBE3649:
.LBE3681:
.LBE3713:
.LBE3746:
.LBE3812:
.LBB3813:
.LBB1978:
	.loc 2 15 70 is_stmt 0 view .LVU2223
	movl	%eax, %edi
	jmp	.L427
.LVL710:
.L455:
	.loc 2 15 70 view .LVU2224
.LBE1978:
.LBE3813:
.LBB3814:
.LBB3747:
.LBB3714:
.LBB3682:
.LBB3650:
.LBB3601:
.LBB3581:
.LBB3561:
.LBB3541:
.LBB3416:
.LBB3402:
.LBB3389:
.LBB3375:
.LBB3334:
	.loc 2 18 28 is_stmt 1 view .LVU2225
	.loc 2 18 28 is_stmt 0 view .LVU2226
.LBE3334:
.LBE3375:
	.loc 2 82 5 is_stmt 1 view .LVU2227
	cmpq	$0, 16(%r15)
	movl	%r12d, %eax
	jne	.L458
.LVL711:
	.loc 2 82 5 is_stmt 0 view .LVU2228
	jmp	.L491
.LVL712:
.L574:
.LBB3376:
.LBB3360:
	.loc 2 75 5 view .LVU2229
	movl	%r12d, %eax
	jmp	.L458
.LBE3360:
.LBE3376:
.LBE3389:
.LBE3402:
.LBE3416:
.LBE3541:
.LBE3561:
.LBE3581:
.LBE3601:
.LBE3650:
.LBE3682:
.LBE3714:
.LBE3747:
.LBE3814:
	.cfi_endproc
.LFE1912:
	.seh_endproc
	.p2align 4,,15
	.globl	_Z5solvev
	.def	_Z5solvev;	.scl	2;	.type	32;	.endef
	.seh_proc	_Z5solvev
_Z5solvev:
.LFB1913:
	.loc 2 105 14 is_stmt 1 view -0
	.cfi_startproc
	pushq	%r13
	.seh_pushreg	%r13
	.cfi_def_cfa_offset 16
	.cfi_offset 13, -16
	pushq	%r12
	.seh_pushreg	%r12
	.cfi_def_cfa_offset 24
	.cfi_offset 12, -24
	pushq	%rbp
	.seh_pushreg	%rbp
	.cfi_def_cfa_offset 32
	.cfi_offset 6, -32
	pushq	%rdi
	.seh_pushreg	%rdi
	.cfi_def_cfa_offset 40
	.cfi_offset 5, -40
	pushq	%rsi
	.seh_pushreg	%rsi
	.cfi_def_cfa_offset 48
	.cfi_offset 4, -48
	pushq	%rbx
	.seh_pushreg	%rbx
	.cfi_def_cfa_offset 56
	.cfi_offset 3, -56
	subq	$56, %rsp
	.seh_stackalloc	56
	.cfi_def_cfa_offset 112
	.seh_endprologue
	.loc 2 106 5 view .LVU2231
	.loc 2 106 12 is_stmt 0 view .LVU2232
	movq	.refptr._ZSt3cin(%rip), %rcx
	leaq	n(%rip), %rdx
	call	_ZNSirsERi
.LVL713:
.LBB3815:
	.loc 2 107 23 view .LVU2233
	movl	n(%rip), %eax
	testl	%eax, %eax
	jle	.L823
	.loc 2 108 19 view .LVU2234
	movq	.refptr._ZSt3cin(%rip), %r13
	leaq	a(%rip), %rbp
	.loc 2 107 14 view .LVU2235
	xorl	%r12d, %r12d
	leaq	b(%rip), %rdi
	movq	%rbp, %rsi
	movq	%rdi, %rbx
.LVL714:
	.p2align 4,,10
.L822:
	.loc 2 108 9 is_stmt 1 view .LVU2236
	.loc 2 108 19 is_stmt 0 view .LVU2237
	movq	%rsi, %rdx
	movq	%r13, %rcx
	.loc 2 107 5 view .LVU2238
	addl	$1, %r12d
.LVL715:
	.loc 2 108 19 view .LVU2239
	call	_ZNSirsERi
.LVL716:
	.loc 2 108 27 view .LVU2240
	movq	%rbx, %rdx
	movq	%rax, %rcx
	call	_ZNSirsERi
.LVL717:
	.loc 2 109 9 is_stmt 1 view .LVU2241
	.loc 2 107 23 is_stmt 0 view .LVU2242
	movl	n(%rip), %eax
	.loc 2 109 15 view .LVU2243
	subl	$1, (%rsi)
	addq	$4, %rsi
	subl	$1, (%rbx)
	addq	$4, %rbx
	.loc 2 107 23 view .LVU2244
	cmpl	%r12d, %eax
	jg	.L822
.LBE3815:
	.loc 2 111 5 is_stmt 1 view .LVU2245
.LVL718:
	.loc 2 112 5 view .LVU2246
.LBB3816:
	.loc 2 112 23 is_stmt 0 view .LVU2247
	testl	%eax, %eax
	jle	.L823
	xorl	%ebx, %ebx
.LBE3816:
	.loc 2 111 9 view .LVU2248
	xorl	%esi, %esi
.LVL719:
	.p2align 4,,10
.L824:
.LBB3818:
.LBB3817:
	.loc 2 113 9 is_stmt 1 view .LVU2249
	.loc 2 114 9 view .LVU2250
	.loc 2 114 17 is_stmt 0 view .LVU2251
	movl	0(%rbp,%rbx,4), %r13d
	.loc 2 115 17 view .LVU2252
	movl	(%rdi,%rbx,4), %r12d
	.loc 2 114 12 view .LVU2253
	movl	%r13d, rx(%rip)
	.loc 2 115 9 is_stmt 1 view .LVU2254
	.loc 2 115 12 is_stmt 0 view .LVU2255
	movl	%r12d, ry(%rip)
	.loc 2 116 9 is_stmt 1 view .LVU2256
	.loc 2 116 21 is_stmt 0 view .LVU2257
	call	_Z5get_xv
.LVL720:
	.loc 2 118 11 view .LVU2258
	movl	%r13d, x(%rip)
	.loc 2 116 24 view .LVU2259
	addl	$1, %eax
.LVL721:
	.loc 2 117 9 is_stmt 1 view .LVU2260
	.loc 2 119 11 is_stmt 0 view .LVU2261
	movl	%r12d, y(%rip)
	cmpl	%eax, %esi
	.loc 2 120 11 view .LVU2262
	movl	%eax, v(%rip)
	cmovl	%eax, %esi
.LVL722:
	.loc 2 118 9 is_stmt 1 view .LVU2263
	.loc 2 119 9 view .LVU2264
	.loc 2 120 9 view .LVU2265
	.loc 2 121 9 view .LVU2266
	addq	$1, %rbx
.LVL723:
	.loc 2 121 14 is_stmt 0 view .LVU2267
	call	_Z5upd_xv
.LVL724:
	.loc 2 121 14 view .LVU2268
.LBE3817:
	.loc 2 112 23 view .LVU2269
	cmpl	%ebx, n(%rip)
	jg	.L824
.LVL725:
.L821:
	.loc 2 112 23 view .LVU2270
.LBE3818:
	.loc 2 123 5 is_stmt 1 view .LVU2271
	.loc 2 123 20 is_stmt 0 view .LVU2272
	movq	.refptr._ZSt4cout(%rip), %rcx
	movl	%esi, %edx
	call	_ZNSolsEi
.LVL726:
.LBB3819:
.LBB3820:
	.file 3 "C:/Program Files/CodeBlocks/MinGW/lib/gcc/x86_64-w64-mingw32/8.1.0/include/c++/ostream"
	.loc 3 509 30 view .LVU2273
	leaq	47(%rsp), %rdx
	movl	$1, %r8d
	movb	$10, 47(%rsp)
.LVL727:
	.loc 3 509 30 view .LVU2274
.LBE3820:
.LBI3819:
	.loc 3 508 5 is_stmt 1 view .LVU2275
.LBB3821:
	.loc 3 509 30 is_stmt 0 view .LVU2276
	movq	%rax, %rcx
	call	_ZSt16__ostream_insertIcSt11char_traitsIcEERSt13basic_ostreamIT_T0_ES6_PKS3_x
	nop
.LVL728:
	.loc 3 509 30 view .LVU2277
.LBE3821:
.LBE3819:
	.loc 2 124 1 view .LVU2278
	addq	$56, %rsp
	.cfi_remember_state
	.cfi_def_cfa_offset 56
	popq	%rbx
	.cfi_restore 3
	.cfi_def_cfa_offset 48
	popq	%rsi
	.cfi_restore 4
	.cfi_def_cfa_offset 40
	popq	%rdi
	.cfi_restore 5
	.cfi_def_cfa_offset 32
	popq	%rbp
	.cfi_restore 6
	.cfi_def_cfa_offset 24
	popq	%r12
	.cfi_restore 12
	.cfi_def_cfa_offset 16
	popq	%r13
	.cfi_restore 13
	.cfi_def_cfa_offset 8
	ret
	.p2align 4,,10
.L823:
	.cfi_restore_state
	.loc 2 111 9 view .LVU2279
	xorl	%esi, %esi
	jmp	.L821
	.cfi_endproc
.LFE1913:
	.seh_endproc
	.def	__main;	.scl	2;	.type	32;	.endef
	.section	.text.startup,"x"
	.p2align 4,,15
	.globl	main
	.def	main;	.scl	2;	.type	32;	.endef
	.seh_proc	main
main:
.LFB1915:
	.loc 2 126 15 is_stmt 1 view -0
	.cfi_startproc
	subq	$40, %rsp
	.seh_stackalloc	40
	.cfi_def_cfa_offset 48
	.seh_endprologue
	.loc 2 126 15 is_stmt 0 view .LVU2281
	call	__main
.LVL729:
	.loc 2 127 5 is_stmt 1 view .LVU2282
	.loc 2 127 25 is_stmt 0 view .LVU2283
	xorl	%ecx, %ecx
	call	_ZNSt8ios_base15sync_with_stdioEb
.LVL730:
	.loc 2 127 30 is_stmt 1 view .LVU2284
.LBB3822:
.LBI3822:
	.file 4 "C:/Program Files/CodeBlocks/MinGW/lib/gcc/x86_64-w64-mingw32/8.1.0/include/c++/bits/basic_ios.h"
	.loc 4 307 7 view .LVU2285
.LBB3823:
	.loc 4 310 9 is_stmt 0 view .LVU2286
	movq	.refptr._ZSt3cin(%rip), %rax
	movq	$0, 232(%rax)
.LVL731:
	.loc 4 310 9 view .LVU2287
.LBE3823:
.LBE3822:
	.loc 2 128 5 is_stmt 1 view .LVU2288
	.loc 2 128 10 is_stmt 0 view .LVU2289
	call	_Z5solvev
.LVL732:
	.loc 2 129 1 view .LVU2290
	xorl	%eax, %eax
	addq	$40, %rsp
	.cfi_def_cfa_offset 8
	ret
	.cfi_endproc
.LFE1915:
	.seh_endproc
	.p2align 4,,15
	.def	_GLOBAL__sub_I_a;	.scl	3;	.type	32;	.endef
	.seh_proc	_GLOBAL__sub_I_a
_GLOBAL__sub_I_a:
.LFB2407:
	.loc 2 129 1 is_stmt 1 view -0
	.cfi_startproc
	subq	$40, %rsp
	.seh_stackalloc	40
	.cfi_def_cfa_offset 48
	.seh_endprologue
.LVL733:
.LBB3824:
.LBI3824:
	.loc 2 129 1 view .LVU2292
.LBB3825:
	.loc 1 74 25 is_stmt 0 view .LVU2293
	leaq	_ZStL8__ioinit(%rip), %rcx
	call	_ZNSt8ios_base4InitC1Ev
.LVL734:
	leaq	__tcf_0(%rip), %rcx
.LBE3825:
.LBE3824:
	.loc 2 129 1 view .LVU2294
	addq	$40, %rsp
	.cfi_def_cfa_offset 8
.LBB3827:
.LBB3826:
	.loc 1 74 25 view .LVU2295
	jmp	atexit
.LVL735:
.LBE3826:
.LBE3827:
	.cfi_endproc
.LFE2407:
	.seh_endproc
	.section	.ctors,"w"
	.align 8
	.quad	_GLOBAL__sub_I_a
	.globl	ry
	.bss
	.align 4
ry:
	.space 4
	.globl	rx
	.align 4
rx:
	.space 4
	.globl	v
	.align 4
v:
	.space 4
	.globl	y
	.align 4
y:
	.space 4
	.globl	x
	.align 4
x:
	.space 4
	.globl	t
	.align 32
t:
	.space 3208000
	.globl	n
	.align 4
n:
	.space 4
	.globl	b
	.align 32
b:
	.space 802000
	.globl	a
	.align 32
a:
	.space 802000
.lcomm _ZStL8__ioinit,1,1
	.text
.Letext0:
	.file 5 "C:/Program Files/CodeBlocks/MinGW/lib/gcc/x86_64-w64-mingw32/8.1.0/include/c++/cwchar"
	.file 6 "C:/Program Files/CodeBlocks/MinGW/lib/gcc/x86_64-w64-mingw32/8.1.0/include/c++/new"
	.file 7 "C:/Program Files/CodeBlocks/MinGW/lib/gcc/x86_64-w64-mingw32/8.1.0/include/c++/bits/exception_ptr.h"
	.file 8 "C:/Program Files/CodeBlocks/MinGW/lib/gcc/x86_64-w64-mingw32/8.1.0/include/c++/type_traits"
	.file 9 "C:/Program Files/CodeBlocks/MinGW/lib/gcc/x86_64-w64-mingw32/8.1.0/include/c++/bits/stl_pair.h"
	.file 10 "C:/Program Files/CodeBlocks/MinGW/lib/gcc/x86_64-w64-mingw32/8.1.0/include/c++/debug/debug.h"
	.file 11 "C:/Program Files/CodeBlocks/MinGW/lib/gcc/x86_64-w64-mingw32/8.1.0/include/c++/bits/char_traits.h"
	.file 12 "C:/Program Files/CodeBlocks/MinGW/lib/gcc/x86_64-w64-mingw32/8.1.0/include/c++/x86_64-w64-mingw32/bits/c++config.h"
	.file 13 "C:/Program Files/CodeBlocks/MinGW/lib/gcc/x86_64-w64-mingw32/8.1.0/include/c++/cstdint"
	.file 14 "C:/Program Files/CodeBlocks/MinGW/lib/gcc/x86_64-w64-mingw32/8.1.0/include/c++/clocale"
	.file 15 "C:/Program Files/CodeBlocks/MinGW/lib/gcc/x86_64-w64-mingw32/8.1.0/include/c++/limits"
	.file 16 "C:/Program Files/CodeBlocks/MinGW/lib/gcc/x86_64-w64-mingw32/8.1.0/include/c++/string_view"
	.file 17 "C:/Program Files/CodeBlocks/MinGW/lib/gcc/x86_64-w64-mingw32/8.1.0/include/c++/bits/basic_string.h"
	.file 18 "C:/Program Files/CodeBlocks/MinGW/lib/gcc/x86_64-w64-mingw32/8.1.0/include/c++/cstdlib"
	.file 19 "C:/Program Files/CodeBlocks/MinGW/lib/gcc/x86_64-w64-mingw32/8.1.0/include/c++/cstdio"
	.file 20 "C:/Program Files/CodeBlocks/MinGW/lib/gcc/x86_64-w64-mingw32/8.1.0/include/c++/system_error"
	.file 21 "C:/Program Files/CodeBlocks/MinGW/lib/gcc/x86_64-w64-mingw32/8.1.0/include/c++/bits/ios_base.h"
	.file 22 "C:/Program Files/CodeBlocks/MinGW/lib/gcc/x86_64-w64-mingw32/8.1.0/include/c++/cwctype"
	.file 23 "C:/Program Files/CodeBlocks/MinGW/lib/gcc/x86_64-w64-mingw32/8.1.0/include/c++/bits/ostream.tcc"
	.file 24 "C:/Program Files/CodeBlocks/MinGW/lib/gcc/x86_64-w64-mingw32/8.1.0/include/c++/istream"
	.file 25 "C:/Program Files/CodeBlocks/MinGW/lib/gcc/x86_64-w64-mingw32/8.1.0/include/c++/iosfwd"
	.file 26 "C:/Program Files/CodeBlocks/MinGW/lib/gcc/x86_64-w64-mingw32/8.1.0/include/c++/bits/stl_algobase.h"
	.file 27 "C:/Program Files/CodeBlocks/MinGW/lib/gcc/x86_64-w64-mingw32/8.1.0/include/c++/bits/ostream_insert.h"
	.file 28 "C:/Program Files/CodeBlocks/MinGW/lib/gcc/x86_64-w64-mingw32/8.1.0/include/c++/bits/predefined_ops.h"
	.file 29 "C:/Program Files/CodeBlocks/MinGW/lib/gcc/x86_64-w64-mingw32/8.1.0/include/c++/ext/new_allocator.h"
	.file 30 "C:/Program Files/CodeBlocks/MinGW/lib/gcc/x86_64-w64-mingw32/8.1.0/include/c++/ext/numeric_traits.h"
	.file 31 "C:/Program Files/CodeBlocks/MinGW/x86_64-w64-mingw32/include/crtdefs.h"
	.file 32 "C:/Program Files/CodeBlocks/MinGW/x86_64-w64-mingw32/include/locale.h"
	.file 33 "C:/Program Files/CodeBlocks/MinGW/x86_64-w64-mingw32/include/wchar.h"
	.file 34 "C:/Program Files/CodeBlocks/MinGW/x86_64-w64-mingw32/include/swprintf.inl"
	.file 35 "C:/Program Files/CodeBlocks/MinGW/x86_64-w64-mingw32/include/stdint.h"
	.file 36 "C:/Program Files/CodeBlocks/MinGW/x86_64-w64-mingw32/include/stdio.h"
	.file 37 "C:/Program Files/CodeBlocks/MinGW/x86_64-w64-mingw32/include/ctype.h"
	.file 38 "C:/Program Files/CodeBlocks/MinGW/x86_64-w64-mingw32/include/process.h"
	.file 39 "C:/Program Files/CodeBlocks/MinGW/x86_64-w64-mingw32/include/pthread.h"
	.file 40 "C:/Program Files/CodeBlocks/MinGW/lib/gcc/x86_64-w64-mingw32/8.1.0/include/c++/x86_64-w64-mingw32/bits/atomic_word.h"
	.file 41 "C:/Program Files/CodeBlocks/MinGW/x86_64-w64-mingw32/include/stdlib.h"
	.file 42 "C:/Program Files/CodeBlocks/MinGW/x86_64-w64-mingw32/include/malloc.h"
	.file 43 "C:/Program Files/CodeBlocks/MinGW/x86_64-w64-mingw32/include/wctype.h"
	.file 44 "<built-in>"