	.file	"main.cpp"
	.text
.Ltext0:
	.cfi_sections	.debug_frame
	.p2align 4,,15
	.def	__tcf_0;	.scl	3;	.type	32;	.endef
	.seh_proc	__tcf_0
__tcf_0:
.LFB4645:
	.file 1 "C:/Program Files/CodeBlocks/MinGW/lib/gcc/x86_64-w64-mingw32/8.1.0/include/c++/iostream"
	.loc 1 74 25 view -0
	.cfi_startproc
	.seh_endprologue
	.loc 1 74 25 is_stmt 0 view .LVU1
	leaq	_ZStL8__ioinit(%rip), %rcx
	jmp	_ZNSt8ios_base4InitD1Ev
.LVL0:
	.cfi_endproc
.LFE4645:
	.seh_endproc
	.p2align 4,,15
	.globl	_Z3rndii
	.def	_Z3rndii;	.scl	2;	.type	32;	.endef
	.seh_proc	_Z3rndii
_Z3rndii:
.LVL1:
.LFB3963:
	.file 2 "C:/Users/Saha2/Desktop/Code-Samples/C++/temporary_stuff/LCM_crazy_square/main.cpp"
	.loc 2 16 23 is_stmt 1 view -0
	.cfi_startproc
	.loc 2 16 23 is_stmt 0 view .LVU3
	subq	$40, %rsp
	.seh_stackalloc	40
	.cfi_def_cfa_offset 48
	movaps	%xmm6, (%rsp)
	.seh_savexmm	%xmm6, 0
	movaps	%xmm7, 16(%rsp)
	.seh_savexmm	%xmm7, 16
	.cfi_offset 23, -48
	.cfi_offset 24, -32
	.seh_endprologue
	.loc 2 17 5 is_stmt 1 view .LVU4
.LVL2:
.LBB104:
.LBI104:
	.file 3 "C:/Program Files/CodeBlocks/MinGW/lib/gcc/x86_64-w64-mingw32/8.1.0/include/c++/bits/random.tcc"
	.loc 3 450 5 view .LVU5
.LBB105:
	.loc 3 455 11 is_stmt 0 view .LVU6
	movq	2496+mt(%rip), %rax
	leaq	mt(%rip), %r9
	leaq	1(%rax), %r8
	.loc 3 455 7 view .LVU7
	cmpq	$623, %rax
	ja	.L21
.L5:
	.loc 3 459 19 view .LVU8
	movl	(%r9,%rax,4), %eax
.LVL3:
	.loc 3 459 29 view .LVU9
	movq	%r8, 2496+mt(%rip)
.LBE105:
.LBE104:
	.loc 2 17 26 view .LVU10
	subl	%ecx, %edx
.LVL4:
	.loc 2 18 1 view .LVU11
	movaps	(%rsp), %xmm6
	movaps	16(%rsp), %xmm7
.LBB118:
.LBB116:
	.loc 3 460 19 view .LVU12
	movl	%eax, %r8d
	shrl	$11, %r8d
	.loc 3 460 7 view .LVU13
	xorl	%r8d, %eax
.LVL5:
	.loc 3 461 19 view .LVU14
	movl	%eax, %r8d
	sall	$7, %r8d
	.loc 3 461 27 view .LVU15
	andl	$-1658038656, %r8d
	.loc 3 461 7 view .LVU16
	xorl	%r8d, %eax
.LVL6:
	.loc 3 462 19 view .LVU17
	movl	%eax, %r8d
	sall	$15, %r8d
	.loc 3 462 27 view .LVU18
	andl	$-272236544, %r8d
	.loc 3 462 7 view .LVU19
	xorl	%r8d, %eax
.LVL7:
	.loc 3 463 19 view .LVU20
	movl	%eax, %r8d
	shrl	$18, %r8d
.LVL8:
	.loc 3 463 7 view .LVU21
	xorl	%r8d, %eax
.LBE116:
.LBE118:
	.loc 2 17 30 view .LVU22
	leal	1(%rdx), %r8d
	.loc 2 17 21 view .LVU23
	xorl	%edx, %edx
	divl	%r8d
	.loc 2 17 14 view .LVU24
	leal	(%rdx,%rcx), %eax
	.loc 2 18 1 view .LVU25
	addq	$40, %rsp
	.cfi_remember_state
	.cfi_restore 24
	.cfi_restore 23
	.cfi_def_cfa_offset 8
	ret
.LVL9:
	.p2align 4,,10
.L21:
	.cfi_restore_state
	.loc 2 18 1 view .LVU26
	movdqa	.LC0(%rip), %xmm4
.LBB119:
.LBB117:
	.loc 3 455 7 view .LVU27
	movq	%r9, %r8
.LBB106:
.LBB107:
.LBB108:
.LBB109:
	.loc 3 405 4 view .LVU28
	pxor	%xmm7, %xmm7
	movdqa	.LC1(%rip), %xmm1
	leaq	896+mt(%rip), %rax
	movdqa	.LC2(%rip), %xmm2
	movdqa	.LC3(%rip), %xmm3
	.p2align 4,,10
.L6:
	.loc 3 403 32 view .LVU29
	movdqa	(%r8), %xmm0
	addq	$16, %r8
	.loc 3 404 24 view .LVU30
	movdqu	-12(%r8), %xmm5
	.loc 3 405 33 view .LVU31
	movdqu	1572(%r8), %xmm6
	.loc 3 403 32 view .LVU32
	pand	%xmm4, %xmm0
	.loc 3 404 24 view .LVU33
	pand	%xmm1, %xmm5
	.loc 3 403 14 view .LVU34
	por	%xmm5, %xmm0
	.loc 3 405 40 view .LVU35
	movdqa	%xmm0, %xmm5
	.loc 3 406 18 view .LVU36
	pand	%xmm2, %xmm0
	.loc 3 405 4 view .LVU37
	pcmpeqd	%xmm7, %xmm0
	.loc 3 405 40 view .LVU38
	psrld	$1, %xmm5
	.loc 3 405 33 view .LVU39
	pxor	%xmm6, %xmm5
	.loc 3 405 4 view .LVU40
	movdqa	%xmm5, %xmm6
	pxor	%xmm3, %xmm6
	pand	%xmm0, %xmm5
	pandn	%xmm6, %xmm0
	por	%xmm5, %xmm0
	movaps	%xmm0, -16(%r8)
.LVL10:
	.loc 3 405 4 view .LVU41
	cmpq	%r8, %rax
	jne	.L6
.LVL11:
	.loc 3 404 14 view .LVU42
	movl	900+mt(%rip), %eax
.LBE109:
.LBE108:
.LBB111:
.LBB112:
	.loc 3 413 4 view .LVU43
	pxor	%xmm7, %xmm7
.LBE112:
.LBE111:
.LBB114:
.LBB110:
	.loc 3 403 32 view .LVU44
	movl	896+mt(%rip), %r10d
	.loc 3 404 24 view .LVU45
	movl	%eax, %r8d
	andl	$2147483647, %r8d
	.loc 3 403 32 view .LVU46
	andl	$-2147483648, %r10d
	.loc 3 403 14 view .LVU47
	orl	%r8d, %r10d
.LVL12:
	.loc 3 405 40 view .LVU48
	movl	%r10d, %r8d
	shrl	%r8d
	.loc 3 405 33 view .LVU49
	xorl	2484+mt(%rip), %r8d
	movl	%r8d, %r11d
	xorl	$-1727483681, %r11d
	andl	$1, %r10d
.LVL13:
	.loc 3 405 33 view .LVU50
	cmovne	%r11d, %r8d
	.loc 3 404 14 view .LVU51
	movl	904+mt(%rip), %r11d
	.loc 3 403 32 view .LVU52
	andl	$-2147483648, %eax
.LVL14:
	.loc 3 405 4 view .LVU53
	movl	%r8d, 896+mt(%rip)
.LVL15:
	.loc 3 404 24 view .LVU54
	movl	%r11d, %r8d
	andl	$2147483647, %r8d
	.loc 3 403 14 view .LVU55
	orl	%r8d, %eax
.LVL16:
	.loc 3 405 40 view .LVU56
	movl	%eax, %r10d
	shrl	%r10d
	.loc 3 405 33 view .LVU57
	xorl	2488+mt(%rip), %r10d
	movl	%r10d, %r8d
	xorl	$-1727483681, %r8d
	testb	$1, %al
	cmovne	%r8d, %r10d
	.loc 3 404 24 view .LVU58
	movl	908+mt(%rip), %r8d
	.loc 3 403 32 view .LVU59
	andl	$-2147483648, %r11d
	.loc 3 405 4 view .LVU60
	movl	%r10d, 900+mt(%rip)
.LVL17:
	.loc 3 404 24 view .LVU61
	andl	$2147483647, %r8d
	.loc 3 403 14 view .LVU62
	orl	%r11d, %r8d
.LVL18:
	.loc 3 405 40 view .LVU63
	movl	%r8d, %eax
	shrl	%eax
	.loc 3 405 33 view .LVU64
	xorl	2492+mt(%rip), %eax
	movl	%eax, %r10d
	xorl	$-1727483681, %r10d
	andl	$1, %r8d
.LVL19:
	.loc 3 405 33 view .LVU65
	cmovne	%r10d, %eax
	leaq	908+mt(%rip), %r8
.LVL20:
	.loc 3 405 4 view .LVU66
	movl	%eax, 904+mt(%rip)
.LVL21:
	.loc 3 405 4 view .LVU67
	leaq	1584(%r8), %rax
.LVL22:
	.p2align 4,,10
.L10:
	.loc 3 405 4 view .LVU68
.LBE110:
.LBE114:
.LBB115:
.LBB113:
	.loc 3 411 32 view .LVU69
	movdqu	(%r8), %xmm0
	addq	$16, %r8
	.loc 3 412 24 view .LVU70
	movdqa	-12(%r8), %xmm5
	.loc 3 411 32 view .LVU71
	pand	%xmm4, %xmm0
	.loc 3 412 24 view .LVU72
	pand	%xmm1, %xmm5
	.loc 3 411 14 view .LVU73
	por	%xmm5, %xmm0
	.loc 3 413 48 view .LVU74
	movdqa	%xmm0, %xmm5
	.loc 3 414 18 view .LVU75
	pand	%xmm2, %xmm0
	.loc 3 413 4 view .LVU76
	pcmpeqd	%xmm7, %xmm0
	.loc 3 413 48 view .LVU77
	psrld	$1, %xmm5
	.loc 3 413 41 view .LVU78
	pxor	-924(%r8), %xmm5
	.loc 3 413 4 view .LVU79
	movdqa	%xmm5, %xmm6
	pxor	%xmm3, %xmm6
	pand	%xmm0, %xmm5
	pandn	%xmm6, %xmm0
	por	%xmm5, %xmm0
	movups	%xmm0, -16(%r8)
.LVL23:
	.loc 3 413 4 view .LVU80
	cmpq	%r8, %rax
	jne	.L10
.LBE113:
.LBE115:
	.loc 3 417 39 view .LVU81
	movl	2492+mt(%rip), %r8d
	.loc 3 418 21 view .LVU82
	movl	mt(%rip), %eax
	.loc 3 417 39 view .LVU83
	andl	$-2147483648, %r8d
	.loc 3 418 21 view .LVU84
	andl	$2147483647, %eax
	.loc 3 417 17 view .LVU85
	orl	%eax, %r8d
.LVL24:
	.loc 3 419 45 view .LVU86
	movl	%r8d, %eax
	shrl	%eax
	.loc 3 419 38 view .LVU87
	xorl	1584+mt(%rip), %eax
	movl	%eax, %r10d
	xorl	$-1727483681, %r10d
	andl	$1, %r8d
.LVL25:
	.loc 3 419 7 view .LVU88
	movl	$1, %r8d
	cmovne	%r10d, %eax
	movl	%eax, 2492+mt(%rip)
.LVL26:
	.loc 3 419 7 view .LVU89
	xorl	%eax, %eax
	jmp	.L5
.LBE107:
.LBE106:
.LBE117:
.LBE119:
	.cfi_endproc
.LFE3963:
	.seh_endproc
	.section	.text$_ZNSt23mersenne_twister_engineIjLy32ELy624ELy397ELy31ELj2567483615ELy11ELj4294967295ELy7ELj2636928640ELy15ELj4022730752ELy18ELj1812433253EEclEv,"x"
	.linkonce discard
	.align 2
	.p2align 4,,15
	.globl	_ZNSt23mersenne_twister_engineIjLy32ELy624ELy397ELy31ELj2567483615ELy11ELj4294967295ELy7ELj2636928640ELy15ELj4022730752ELy18ELj1812433253EEclEv
	.def	_ZNSt23mersenne_twister_engineIjLy32ELy624ELy397ELy31ELj2567483615ELy11ELj4294967295ELy7ELj2636928640ELy15ELj4022730752ELy18ELj1812433253EEclEv;	.scl	2;	.type	32;	.endef
	.seh_proc	_ZNSt23mersenne_twister_engineIjLy32ELy624ELy397ELy31ELj2567483615ELy11ELj4294967295ELy7ELj2636928640ELy15ELj4022730752ELy18ELj1812433253EEclEv
_ZNSt23mersenne_twister_engineIjLy32ELy624ELy397ELy31ELj2567483615ELy11ELj4294967295ELy7ELj2636928640ELy15ELj4022730752ELy18ELj1812433253EEclEv:
.LVL27:
.LFB4277:
	.loc 3 450 5 is_stmt 1 view -0
	.cfi_startproc
	.loc 3 450 5 is_stmt 0 view .LVU91
	subq	$40, %rsp
	.seh_stackalloc	40
	.cfi_def_cfa_offset 48
	movaps	%xmm6, (%rsp)
	.seh_savexmm	%xmm6, 0
	movaps	%xmm7, 16(%rsp)
	.seh_savexmm	%xmm7, 16
	.cfi_offset 23, -48
	.cfi_offset 24, -32
	.seh_endprologue
	.loc 3 455 11 view .LVU92
	movq	2496(%rcx), %rax
	.loc 3 455 7 view .LVU93
	cmpq	$623, %rax
	ja	.L23
	leaq	1(%rax), %rdx
	movl	(%rcx,%rax,4), %eax
.L24:
	.loc 3 459 29 view .LVU94
	movq	%rdx, 2496(%rcx)
.LVL28:
	.loc 3 460 19 view .LVU95
	movl	%eax, %edx
	.loc 3 466 5 view .LVU96
	movaps	(%rsp), %xmm6
	.loc 3 460 19 view .LVU97
	shrl	$11, %edx
	.loc 3 466 5 view .LVU98
	movaps	16(%rsp), %xmm7
	.loc 3 460 7 view .LVU99
	xorl	%eax, %edx
.LVL29:
	.loc 3 461 19 view .LVU100
	movl	%edx, %eax
	sall	$7, %eax
	.loc 3 461 27 view .LVU101
	andl	$-1658038656, %eax
	.loc 3 461 7 view .LVU102
	xorl	%eax, %edx
.LVL30:
	.loc 3 462 19 view .LVU103
	movl	%edx, %eax
	sall	$15, %eax
	.loc 3 462 27 view .LVU104
	andl	$-272236544, %eax
	.loc 3 462 7 view .LVU105
	xorl	%edx, %eax
.LVL31:
	.loc 3 463 19 view .LVU106
	movl	%eax, %edx
	shrl	$18, %edx
.LVL32:
	.loc 3 463 7 view .LVU107
	xorl	%edx, %eax
.LVL33:
	.loc 3 466 5 view .LVU108
	addq	$40, %rsp
	.cfi_remember_state
	.cfi_restore 24
	.cfi_restore 23
	.cfi_def_cfa_offset 8
	ret
.LVL34:
	.p2align 4,,10
.L23:
	.cfi_restore_state
	.loc 3 466 5 view .LVU109
	movdqa	.LC0(%rip), %xmm1
	.loc 3 455 7 view .LVU110
	movq	%rcx, %rax
.LBB126:
.LBB127:
.LBB128:
.LBB129:
	.loc 3 405 4 view .LVU111
	pxor	%xmm7, %xmm7
	movdqa	.LC1(%rip), %xmm2
	leaq	896(%rcx), %rdx
	movdqa	.LC2(%rip), %xmm3
	movdqa	.LC3(%rip), %xmm4
	.p2align 4,,10
.L25:
	.loc 3 403 32 view .LVU112
	movdqu	(%rax), %xmm0
	addq	$16, %rax
	.loc 3 404 24 view .LVU113
	movdqu	-12(%rax), %xmm5
	.loc 3 405 33 view .LVU114
	movdqu	1572(%rax), %xmm6
	.loc 3 403 32 view .LVU115
	pand	%xmm1, %xmm0
	.loc 3 404 24 view .LVU116
	pand	%xmm2, %xmm5
	.loc 3 403 14 view .LVU117
	por	%xmm5, %xmm0
	.loc 3 405 40 view .LVU118
	movdqa	%xmm0, %xmm5
	.loc 3 406 18 view .LVU119
	pand	%xmm3, %xmm0
	.loc 3 405 4 view .LVU120
	pcmpeqd	%xmm7, %xmm0
	.loc 3 405 40 view .LVU121
	psrld	$1, %xmm5
	.loc 3 405 33 view .LVU122
	pxor	%xmm6, %xmm5
	.loc 3 405 4 view .LVU123
	movdqa	%xmm5, %xmm6
	pxor	%xmm4, %xmm6
	pand	%xmm0, %xmm5
	pandn	%xmm6, %xmm0
	por	%xmm5, %xmm0
	movups	%xmm0, -16(%rax)
.LVL35:
	.loc 3 405 4 view .LVU124
	cmpq	%rax, %rdx
	jne	.L25
.LVL36:
	.loc 3 404 14 view .LVU125
	movl	900(%rcx), %eax
.LBE129:
.LBE128:
.LBB131:
.LBB132:
	.loc 3 413 4 view .LVU126
	pxor	%xmm7, %xmm7
.LBE132:
.LBE131:
.LBB134:
.LBB130:
	.loc 3 403 32 view .LVU127
	movl	896(%rcx), %r8d
	.loc 3 404 24 view .LVU128
	movl	%eax, %edx
	andl	$2147483647, %edx
	.loc 3 403 32 view .LVU129
	andl	$-2147483648, %r8d
	.loc 3 403 14 view .LVU130
	orl	%edx, %r8d
.LVL37:
	.loc 3 405 40 view .LVU131
	movl	%r8d, %edx
	shrl	%edx
	.loc 3 405 33 view .LVU132
	xorl	2484(%rcx), %edx
	movl	%edx, %r9d
	xorl	$-1727483681, %r9d
	andl	$1, %r8d
.LVL38:
	.loc 3 405 33 view .LVU133
	cmovne	%r9d, %edx
	.loc 3 404 14 view .LVU134
	movl	904(%rcx), %r9d
	.loc 3 403 32 view .LVU135
	andl	$-2147483648, %eax
.LVL39:
	.loc 3 405 4 view .LVU136
	movl	%edx, 896(%rcx)
.LVL40:
	.loc 3 404 24 view .LVU137
	movl	%r9d, %edx
	andl	$2147483647, %edx
	.loc 3 403 14 view .LVU138
	orl	%edx, %eax
.LVL41:
	.loc 3 405 40 view .LVU139
	movl	%eax, %r8d
	shrl	%r8d
	.loc 3 405 33 view .LVU140
	xorl	2488(%rcx), %r8d
	movl	%r8d, %edx
	xorl	$-1727483681, %edx
	testb	$1, %al
	cmovne	%edx, %r8d
	.loc 3 404 24 view .LVU141
	movl	908(%rcx), %edx
	.loc 3 403 32 view .LVU142
	andl	$-2147483648, %r9d
	.loc 3 405 4 view .LVU143
	movl	%r8d, 900(%rcx)
.LVL42:
	.loc 3 404 24 view .LVU144
	andl	$2147483647, %edx
	.loc 3 403 14 view .LVU145
	orl	%r9d, %edx
.LVL43:
	.loc 3 405 40 view .LVU146
	movl	%edx, %eax
	shrl	%eax
	.loc 3 405 33 view .LVU147
	xorl	2492(%rcx), %eax
	movl	%eax, %r8d
	xorl	$-1727483681, %r8d
	andl	$1, %edx
.LVL44:
	.loc 3 405 33 view .LVU148
	cmovne	%r8d, %eax
	leaq	2492(%rcx), %rdx
	.loc 3 405 4 view .LVU149
	movl	%eax, 904(%rcx)
.LVL45:
	.loc 3 405 4 view .LVU150
	leaq	908(%rcx), %rax
.LVL46:
	.p2align 4,,10
.L29:
	.loc 3 405 4 view .LVU151
.LBE130:
.LBE134:
.LBB135:
.LBB133:
	.loc 3 411 32 view .LVU152
	movdqu	(%rax), %xmm0
	addq	$16, %rax
	.loc 3 412 24 view .LVU153
	movdqu	-12(%rax), %xmm5
	.loc 3 413 41 view .LVU154
	movdqu	-924(%rax), %xmm6
	.loc 3 411 32 view .LVU155
	pand	%xmm1, %xmm0
	.loc 3 412 24 view .LVU156
	pand	%xmm2, %xmm5
	.loc 3 411 14 view .LVU157
	por	%xmm5, %xmm0
	.loc 3 413 48 view .LVU158
	movdqa	%xmm0, %xmm5
	.loc 3 414 18 view .LVU159
	pand	%xmm3, %xmm0
	.loc 3 413 4 view .LVU160
	pcmpeqd	%xmm7, %xmm0
	.loc 3 413 48 view .LVU161
	psrld	$1, %xmm5
	.loc 3 413 41 view .LVU162
	pxor	%xmm6, %xmm5
	.loc 3 413 4 view .LVU163
	movdqa	%xmm5, %xmm6
	pxor	%xmm4, %xmm6
	pand	%xmm0, %xmm5
	pandn	%xmm6, %xmm0
	por	%xmm5, %xmm0
	movups	%xmm0, -16(%rax)
.LVL47:
	.loc 3 413 4 view .LVU164
	cmpq	%rax, %rdx
	jne	.L29
.LBE133:
.LBE135:
	.loc 3 418 17 view .LVU165
	movl	(%rcx), %eax
	.loc 3 417 39 view .LVU166
	movl	2492(%rcx), %r8d
	.loc 3 418 21 view .LVU167
	movl	%eax, %edx
	andl	$2147483647, %edx
	.loc 3 417 39 view .LVU168
	andl	$-2147483648, %r8d
	.loc 3 417 17 view .LVU169
	orl	%edx, %r8d
.LVL48:
	.loc 3 419 45 view .LVU170
	movl	%r8d, %edx
	shrl	%edx
	.loc 3 419 38 view .LVU171
	xorl	1584(%rcx), %edx
	movl	%edx, %r9d
	xorl	$-1727483681, %r9d
	andl	$1, %r8d
.LVL49:
	.loc 3 419 38 view .LVU172
	cmovne	%r9d, %edx
	.loc 3 419 7 view .LVU173
	movl	%edx, 2492(%rcx)
.LVL50:
	.loc 3 419 7 view .LVU174
	movl	$1, %edx
	jmp	.L24
.LBE127:
.LBE126:
	.cfi_endproc
.LFE4277:
	.seh_endproc
	.def	__main;	.scl	2;	.type	32;	.endef
	.section .rdata,"dr"
.LC4:
	.ascii "r\0"
.LC5:
	.ascii "input.txt\0"
.LC6:
	.ascii "Hello world!\0"
	.section	.text.startup,"x"
	.p2align 4,,15
	.globl	main
	.def	main;	.scl	2;	.type	32;	.endef
	.seh_proc	main
main:
.LFB3964:
	.loc 2 22 1 is_stmt 1 view -0
	.cfi_startproc
	pushq	%rbx
	.seh_pushreg	%rbx
	.cfi_def_cfa_offset 16
	.cfi_offset 3, -16
	subq	$112, %rsp
	.seh_stackalloc	112
	.cfi_def_cfa_offset 128
	.seh_endprologue
	.loc 2 22 1 is_stmt 0 view .LVU176
	call	__main
.LVL51:
	.loc 2 23 5 is_stmt 1 view .LVU177
.LBB164:
.LBB165:
	.file 4 "C:/Program Files/CodeBlocks/MinGW/lib/gcc/x86_64-w64-mingw32/8.1.0/include/c++/istream"
	.loc 4 200 30 is_stmt 0 view .LVU178
	leaq	48(%rsp), %rbx
.LBE165:
.LBE164:
	.loc 2 23 12 view .LVU179
	xorl	%ecx, %ecx
	call	*__imp___acrt_iob_func(%rip)
.LVL52:
	leaq	.LC4(%rip), %rdx
	leaq	.LC5(%rip), %rcx
	movq	%rax, %r8
	call	freopen
.LVL53:
	.loc 2 24 5 is_stmt 1 view .LVU180
	.loc 2 25 5 view .LVU181
.LBB167:
.LBI164:
	.loc 4 199 7 view .LVU182
.LBB166:
	.loc 4 200 30 is_stmt 0 view .LVU183
	movq	.refptr._ZSt3cin(%rip), %rcx
	movq	%rbx, %rdx
	call	_ZNSi10_M_extractIyEERSiRT_
.LVL54:
	.loc 4 200 30 view .LVU184
.LBE166:
.LBE167:
.LBB168:
.LBI168:
	.loc 4 199 7 is_stmt 1 view .LVU185
.LBB169:
	.loc 4 200 30 is_stmt 0 view .LVU186
	leaq	8(%rbx), %rdx
	movq	%rax, %rcx
	call	_ZNSi10_M_extractIyEERSiRT_
.LVL55:
	.loc 4 200 30 view .LVU187
.LBE169:
.LBE168:
.LBB170:
.LBI170:
	.loc 4 199 7 is_stmt 1 view .LVU188
.LBB171:
	.loc 4 200 30 is_stmt 0 view .LVU189
	leaq	16(%rbx), %rdx
.LBE171:
.LBE170:
.LBB173:
.LBB174:
	leaq	80(%rsp), %rbx
.LBE174:
.LBE173:
.LBB176:
.LBB172:
	movq	%rax, %rcx
	call	_ZNSi10_M_extractIyEERSiRT_
.LVL56:
	.loc 4 200 30 view .LVU190
.LBE172:
.LBE176:
	.loc 2 26 5 is_stmt 1 view .LVU191
.LBB177:
.LBI173:
	.loc 4 199 7 view .LVU192
.LBB175:
	.loc 4 200 30 is_stmt 0 view .LVU193
	movq	.refptr._ZSt3cin(%rip), %rcx
	movq	%rbx, %rdx
	call	_ZNSi10_M_extractIyEERSiRT_
.LVL57:
	.loc 4 200 30 view .LVU194
.LBE175:
.LBE177:
.LBB178:
.LBI178:
	.loc 4 199 7 is_stmt 1 view .LVU195
.LBB179:
	.loc 4 200 30 is_stmt 0 view .LVU196
	leaq	8(%rbx), %rdx
	movq	%rax, %rcx
	call	_ZNSi10_M_extractIyEERSiRT_
.LVL58:
	.loc 4 200 30 view .LVU197
.LBE179:
.LBE178:
.LBB180:
.LBI180:
	.loc 4 199 7 is_stmt 1 view .LVU198
.LBB181:
	.loc 4 200 30 is_stmt 0 view .LVU199
	leaq	16(%rbx), %rdx
	movq	%rax, %rcx
	call	_ZNSi10_M_extractIyEERSiRT_
.LVL59:
	.loc 4 200 30 view .LVU200
.LBE181:
.LBE180:
	.loc 2 28 5 is_stmt 1 view .LVU201
	.loc 2 32 5 view .LVU202
.LBB182:
.LBI182:
	.loc 2 16 5 view .LVU203
.LBB183:
	.loc 2 17 5 view .LVU204
	.loc 2 17 18 is_stmt 0 view .LVU205
	leaq	mt(%rip), %rcx
	call	_ZNSt23mersenne_twister_engineIjLy32ELy624ELy397ELy31ELj2567483615ELy11ELj4294967295ELy7ELj2636928640ELy15ELj4022730752ELy18ELj1812433253EEclEv
.LVL60:
	.loc 2 17 21 view .LVU206
	movl	$-1989124289, %ecx
	.loc 2 17 18 view .LVU207
	movl	%eax, %r8d
.LVL61:
	.loc 2 17 21 view .LVU208
	mull	%ecx
.LBE183:
.LBE182:
	.loc 2 32 38 view .LVU209
	movq	.refptr._ZSt4cout(%rip), %rcx
.LBB185:
.LBB184:
	.loc 2 17 21 view .LVU210
	shrl	$29, %edx
	imull	$1000000001, %edx, %eax
	movl	%r8d, %edx
	subl	%eax, %edx
.LBE184:
.LBE185:
	.loc 2 32 38 view .LVU211
	call	_ZNSolsEi
.LVL62:
	.loc 2 36 5 is_stmt 1 view .LVU212
	.loc 2 38 5 view .LVU213
.LBB186:
.LBI186:
	.loc 4 199 7 view .LVU214
.LBB187:
	.loc 4 200 30 is_stmt 0 view .LVU215
	movq	.refptr._ZSt3cin(%rip), %rcx
	leaq	32(%rsp), %rdx
.LVL63:
	.loc 4 200 30 view .LVU216
	call	_ZNSi10_M_extractIyEERSiRT_
.LVL64:
	.loc 4 200 30 view .LVU217
.LBE187:
.LBE186:
.LBB188:
.LBI188:
	.loc 4 199 7 is_stmt 1 view .LVU218
.LBB189:
	.loc 4 200 30 is_stmt 0 view .LVU219
	leaq	40(%rsp), %rdx
.LVL65:
	.loc 4 200 30 view .LVU220
	movq	%rax, %rcx
	call	_ZNSi10_M_extractIyEERSiRT_
.LVL66:
	.loc 4 200 30 view .LVU221
.LBE189:
.LBE188:
	.loc 2 44 5 is_stmt 1 view .LVU222
.LBB190:
.LBI190:
	.file 5 "C:/Program Files/CodeBlocks/MinGW/lib/gcc/x86_64-w64-mingw32/8.1.0/include/c++/ostream"
	.loc 5 556 5 view .LVU223
	.loc 5 556 5 is_stmt 0 view .LVU224
.LBE190:
	.file 6 "C:/Program Files/CodeBlocks/MinGW/lib/gcc/x86_64-w64-mingw32/8.1.0/include/c++/bits/char_traits.h"
	.loc 6 317 2 is_stmt 1 view .LVU225
.LBB192:
.LBB191:
	.loc 5 561 18 is_stmt 0 view .LVU226
	movq	.refptr._ZSt4cout(%rip), %rcx
	movl	$12, %r8d
	leaq	.LC6(%rip), %rdx
	call	_ZSt16__ostream_insertIcSt11char_traitsIcEERSt13basic_ostreamIT_T0_ES6_PKS3_x
.LVL67:
	.loc 5 561 18 view .LVU227
.LBE191:
.LBE192:
.LBB193:
.LBI193:
	.loc 5 108 7 is_stmt 1 view .LVU228
.LBB194:
	.loc 5 113 13 is_stmt 0 view .LVU229
	movq	.refptr._ZSt4cout(%rip), %rcx
	call	_ZSt4endlIcSt11char_traitsIcEERSt13basic_ostreamIT_T0_ES6_
.LVL68:
	.loc 5 113 13 view .LVU230
.LBE194:
.LBE193:
	.loc 2 45 5 is_stmt 1 view .LVU231
	.loc 2 46 1 is_stmt 0 view .LVU232
	xorl	%eax, %eax
	addq	$112, %rsp
	.cfi_def_cfa_offset 16
	popq	%rbx
	.cfi_restore 3
	.cfi_def_cfa_offset 8
	ret
	.cfi_endproc
.LFE3964:
	.seh_endproc
	.p2align 4,,15
	.def	_GLOBAL__sub_I_seed;	.scl	3;	.type	32;	.endef
	.seh_proc	_GLOBAL__sub_I_seed
_GLOBAL__sub_I_seed:
.LFB4646:
	.loc 2 46 1 is_stmt 1 view -0
	.cfi_startproc
	subq	$40, %rsp
	.seh_stackalloc	40
	.cfi_def_cfa_offset 48
	.seh_endprologue
.LBB207:
.LBI207:
	.loc 2 46 1 view .LVU234
.LVL69:
.LBB208:
	.loc 1 74 25 is_stmt 0 view .LVU235
	leaq	_ZStL8__ioinit(%rip), %rcx
	call	_ZNSt8ios_base4InitC1Ev
.LVL70:
	leaq	__tcf_0(%rip), %rcx
	call	atexit
.LVL71:
	.loc 2 13 52 view .LVU236
	call	_ZNSt6chrono3_V212system_clock3nowEv
.LVL72:
	.loc 2 13 52 view .LVU237
	leaq	mt(%rip), %r8
	.loc 2 13 5 view .LVU238
	movl	%eax, seed(%rip)
.LVL73:
.LBB209:
.LBI209:
	.file 7 "C:/Program Files/CodeBlocks/MinGW/lib/gcc/x86_64-w64-mingw32/8.1.0/include/c++/bits/random.h"
	.loc 7 501 9 is_stmt 1 view .LVU239
.LBB210:
.LBB211:
	.loc 7 502 11 is_stmt 0 view .LVU240
	movl	%eax, %ecx
.LVL74:
.LBB212:
.LBI212:
	.loc 3 324 5 is_stmt 1 view .LVU241
.LBB213:
	.loc 3 328 7 is_stmt 0 view .LVU242
	movl	%eax, mt(%rip)
.LVL75:
.LBB214:
	.loc 3 331 19 view .LVU243
	movl	$1, %eax
.LVL76:
	.p2align 4,,10
.L42:
.LBB215:
	.loc 3 334 15 view .LVU244
	movl	%ecx, %edx
	shrl	$30, %edx
	.loc 3 334 4 view .LVU245
	xorl	%ecx, %edx
.LVL77:
	.loc 3 335 4 view .LVU246
	imull	$1812433253, %edx, %edx
.LVL78:
	.loc 3 336 4 view .LVU247
	leal	(%rdx,%rax), %ecx
.LVL79:
	.loc 3 337 4 view .LVU248
	movl	%ecx, (%r8,%rax,4)
.LBE215:
	.loc 3 331 7 view .LVU249
	addq	$1, %rax
.LVL80:
	.loc 3 331 32 view .LVU250
	cmpq	$624, %rax
	jne	.L42
.LBE214:
	.loc 3 340 7 view .LVU251
	movq	$624, 2496+mt(%rip)
.LVL81:
	.loc 3 340 7 view .LVU252
.LBE213:
.LBE212:
.LBE211:
.LBE210:
.LBE209:
.LBE208:
.LBE207:
	.loc 2 46 1 view .LVU253
	addq	$40, %rsp
	.cfi_def_cfa_offset 8
	ret
	.cfi_endproc
.LFE4646:
	.seh_endproc
	.section	.ctors,"w"
	.align 8
	.quad	_GLOBAL__sub_I_seed
	.globl	mt
	.bss
	.align 32
mt:
	.space 2504
	.globl	seed
	.align 4
seed:
	.space 4
.lcomm _ZStL8__ioinit,1,1
	.section .rdata,"dr"
	.align 16
.LC0:
	.long	-2147483648
	.long	-2147483648
	.long	-2147483648
	.long	-2147483648
	.align 16
.LC1:
	.long	2147483647
	.long	2147483647
	.long	2147483647
	.long	2147483647
	.align 16
.LC2:
	.long	1
	.long	1
	.long	1
	.long	1
	.align 16
.LC3:
	.long	-1727483681
	.long	-1727483681
	.long	-1727483681
	.long	-1727483681
	.text
.Letext0:
	.file 8 "C:/Program Files/CodeBlocks/MinGW/lib/gcc/x86_64-w64-mingw32/8.1.0/include/c++/cwchar"
	.file 9 "C:/Program Files/CodeBlocks/MinGW/lib/gcc/x86_64-w64-mingw32/8.1.0/include/c++/new"
	.file 10 "C:/Program Files/CodeBlocks/MinGW/lib/gcc/x86_64-w64-mingw32/8.1.0/include/c++/bits/exception_ptr.h"
	.file 11 "C:/Program Files/CodeBlocks/MinGW/lib/gcc/x86_64-w64-mingw32/8.1.0/include/c++/type_traits"
	.file 12 "C:/Program Files/CodeBlocks/MinGW/lib/gcc/x86_64-w64-mingw32/8.1.0/include/c++/bits/stl_pair.h"
	.file 13 "C:/Program Files/CodeBlocks/MinGW/lib/gcc/x86_64-w64-mingw32/8.1.0/include/c++/debug/debug.h"
	.file 14 "C:/Program Files/CodeBlocks/MinGW/lib/gcc/x86_64-w64-mingw32/8.1.0/include/c++/x86_64-w64-mingw32/bits/c++config.h"
	.file 15 "C:/Program Files/CodeBlocks/MinGW/lib/gcc/x86_64-w64-mingw32/8.1.0/include/c++/cstdint"
	.file 16 "C:/Program Files/CodeBlocks/MinGW/lib/gcc/x86_64-w64-mingw32/8.1.0/include/c++/clocale"
	.file 17 "C:/Program Files/CodeBlocks/MinGW/lib/gcc/x86_64-w64-mingw32/8.1.0/include/c++/limits"
	.file 18 "C:/Program Files/CodeBlocks/MinGW/lib/gcc/x86_64-w64-mingw32/8.1.0/include/c++/string_view"
	.file 19 "C:/Program Files/CodeBlocks/MinGW/lib/gcc/x86_64-w64-mingw32/8.1.0/include/c++/bits/basic_string.h"
	.file 20 "C:/Program Files/CodeBlocks/MinGW/lib/gcc/x86_64-w64-mingw32/8.1.0/include/c++/chrono"
	.file 21 "C:/Program Files/CodeBlocks/MinGW/lib/gcc/x86_64-w64-mingw32/8.1.0/include/c++/cstdlib"
	.file 22 "C:/Program Files/CodeBlocks/MinGW/lib/gcc/x86_64-w64-mingw32/8.1.0/include/c++/cstdio"
	.file 23 "C:/Program Files/CodeBlocks/MinGW/lib/gcc/x86_64-w64-mingw32/8.1.0/include/c++/system_error"
	.file 24 "C:/Program Files/CodeBlocks/MinGW/lib/gcc/x86_64-w64-mingw32/8.1.0/include/c++/bits/ios_base.h"
	.file 25 "C:/Program Files/CodeBlocks/MinGW/lib/gcc/x86_64-w64-mingw32/8.1.0/include/c++/cwctype"
	.file 26 "C:/Program Files/CodeBlocks/MinGW/lib/gcc/x86_64-w64-mingw32/8.1.0/include/c++/bits/ostream.tcc"
	.file 27 "C:/Program Files/CodeBlocks/MinGW/lib/gcc/x86_64-w64-mingw32/8.1.0/include/c++/bits/istream.tcc"
	.file 28 "C:/Program Files/CodeBlocks/MinGW/lib/gcc/x86_64-w64-mingw32/8.1.0/include/c++/bits/locale_facets.h"
	.file 29 "C:/Program Files/CodeBlocks/MinGW/lib/gcc/x86_64-w64-mingw32/8.1.0/include/c++/iosfwd"
	.file 30 "C:/Program Files/CodeBlocks/MinGW/lib/gcc/x86_64-w64-mingw32/8.1.0/include/c++/ctime"
	.file 31 "C:/Program Files/CodeBlocks/MinGW/lib/gcc/x86_64-w64-mingw32/8.1.0/include/c++/cmath"
	.file 32 "C:/Program Files/CodeBlocks/MinGW/lib/gcc/x86_64-w64-mingw32/8.1.0/include/c++/utility"
	.file 33 "C:/Program Files/CodeBlocks/MinGW/lib/gcc/x86_64-w64-mingw32/8.1.0/include/c++/bits/std_abs.h"
	.file 34 "C:/Program Files/CodeBlocks/MinGW/lib/gcc/x86_64-w64-mingw32/8.1.0/include/c++/ratio"
	.file 35 "C:/Program Files/CodeBlocks/MinGW/lib/gcc/x86_64-w64-mingw32/8.1.0/include/c++/bits/basic_ios.h"
	.file 36 "C:/Program Files/CodeBlocks/MinGW/lib/gcc/x86_64-w64-mingw32/8.1.0/include/c++/bits/ostream_insert.h"
	.file 37 "C:/Program Files/CodeBlocks/MinGW/lib/gcc/x86_64-w64-mingw32/8.1.0/include/c++/bits/predefined_ops.h"
	.file 38 "C:/Program Files/CodeBlocks/MinGW/lib/gcc/x86_64-w64-mingw32/8.1.0/include/c++/ext/new_allocator.h"
	.file 39 "C:/Program Files/CodeBlocks/MinGW/lib/gcc/x86_64-w64-mingw32/8.1.0/include/c++/ext/numeric_traits.h"
	.file 40 "C:/Program Files/CodeBlocks/MinGW/x86_64-w64-mingw32/include/crtdefs.h"
	.file 41 "C:/Program Files/CodeBlocks/MinGW/x86_64-w64-mingw32/include/locale.h"
	.file 42 "C:/Program Files/CodeBlocks/MinGW/x86_64-w64-mingw32/include/wchar.h"
	.file 43 "C:/Program Files/CodeBlocks/MinGW/x86_64-w64-mingw32/include/swprintf.inl"
	.file 44 "C:/Program Files/CodeBlocks/MinGW/x86_64-w64-mingw32/include/stdint.h"
	.file 45 "C:/Program Files/CodeBlocks/MinGW/x86_64-w64-mingw32/include/stdio.h"
	.file 46 "C:/Program Files/CodeBlocks/MinGW/x86_64-w64-mingw32/include/ctype.h"
	.file 47 "C:/Program Files/CodeBlocks/MinGW/x86_64-w64-mingw32/include/process.h"
	.file 48 "C:/Program Files/CodeBlocks/MinGW/x86_64-w64-mingw32/include/pthread.h"
	.file 49 "C:/Program Files/CodeBlocks/MinGW/lib/gcc/x86_64-w64-mingw32/8.1.0/include/c++/x86_64-w64-mingw32/bits/atomic_word.h"
	.file 50 "C:/Program Files/CodeBlocks/MinGW/x86_64-w64-mingw32/include/stdlib.h"
	.file 51 "C:/Program Files/CodeBlocks/MinGW/x86_64-w64-mingw32/include/malloc.h"
	.file 52 "C:/Program Files/CodeBlocks/MinGW/x86_64-w64-mingw32/include/wctype.h"
	.file 53 "C:/Program Files/CodeBlocks/MinGW/x86_64-w64-mingw32/include/time.h"
	.file 54 "C:/Program Files/CodeBlocks/MinGW/x86_64-w64-mingw32/include/math.h"
	.file 55 "C:/Program Files/CodeBlocks/MinGW/lib/gcc/x86_64-w64-mingw32/8.1.0/include/c++/stdlib.h"
	.file 56 "<built-in>"
	.section	.rdata$.refptr._ZSt4cout, "dr"
	.globl	.refptr._ZSt4cout
	.linkonce	discard
.refptr._ZSt4cout:
	.quad	_ZSt4cout
	.section	.rdata$.refptr._ZSt3cin, "dr"
	.globl	.refptr._ZSt3cin
	.linkonce	discard
.refptr._ZSt3cin:
	.quad	_ZSt3cin
